///////////////////////////////////////////////////////////////////////////////
//
// IAR ANSI C/C++ Compiler V7.10.1.6676/W32 for ARM       16/Apr/2020  18:39:02
// Copyright 1999-2014 IAR Systems AB.
//
//    Cpu mode     =  thumb
//    Endian       =  little
//    Source file  =  
//        D:\DLP_proj\DLP_github\MKS-DLP-FIRMWARE\Middlewares\Third_Party\Marlin\Marlin_main.cpp
//    Command line =  
//        D:\DLP_proj\DLP_github\MKS-DLP-FIRMWARE\Middlewares\Third_Party\Marlin\Marlin_main.cpp
//        -D USE_HAL_DRIVER -D STM32F407xx -D STM32F40_41xxx -D USE_HAL_LIB -D
//        MKS_DLP_BOARD -D TFT35 -D USE_STM32F407VET -lC
//        D:\DLP_proj\DLP_github\MKS-DLP-FIRMWARE\EWARM\mksDLP/List\ -lA
//        D:\DLP_proj\DLP_github\MKS-DLP-FIRMWARE\EWARM\mksDLP/List\
//        --diag_suppress Pa050 -o
//        D:\DLP_proj\DLP_github\MKS-DLP-FIRMWARE\EWARM\mksDLP/Obj\ --no_unroll
//        --no_inline --no_tbaa --no_scheduling --debug --endian=little
//        --cpu=Cortex-M4F -e --char_is_signed --fpu=VFPv4_sp --dlib_config
//        "D:\Program Files (x86)\IAR Systems\Embedded Workbench
//        7.0\arm\INC\c\DLib_Config_Full.h" -I
//        D:\DLP_proj\DLP_github\MKS-DLP-FIRMWARE\EWARM/../Inc\ -I
//        D:\DLP_proj\DLP_github\MKS-DLP-FIRMWARE\EWARM/../Src\ -I
//        D:\DLP_proj\DLP_github\MKS-DLP-FIRMWARE\EWARM/../Drivers/STM32F4xx_HAL_Driver/Inc\
//        -I
//        D:\DLP_proj\DLP_github\MKS-DLP-FIRMWARE\EWARM/../Drivers/STM32F4xx_HAL_Driver/Inc/Legacy\
//        -I
//        D:\DLP_proj\DLP_github\MKS-DLP-FIRMWARE\EWARM/../Middlewares/Third_Party/FatFs/src/drivers\
//        -I
//        D:\DLP_proj\DLP_github\MKS-DLP-FIRMWARE\EWARM/../Middlewares/ST/STM32_USB_Host_Library/Core/Inc\
//        -I
//        D:\DLP_proj\DLP_github\MKS-DLP-FIRMWARE\EWARM/../Middlewares/ST/STM32_USB_Host_Library/Class/MSC/Inc\
//        -I
//        D:\DLP_proj\DLP_github\MKS-DLP-FIRMWARE\EWARM/../Drivers/CMSIS/Device/ST/STM32F4xx/Include\
//        -I
//        D:\DLP_proj\DLP_github\MKS-DLP-FIRMWARE\EWARM/../Middlewares/Third_Party/FatFs/src\
//        -I
//        D:\DLP_proj\DLP_github\MKS-DLP-FIRMWARE\EWARM/../Middlewares/Third_Party/Marlin\
//        -I
//        D:\DLP_proj\DLP_github\MKS-DLP-FIRMWARE\EWARM/../Drivers/CMSIS/Include\
//        -I
//        D:\DLP_proj\DLP_github\MKS-DLP-FIRMWARE\EWARM/../Drivers/BSP/variant\
//        -I
//        D:\DLP_proj\DLP_github\MKS-DLP-FIRMWARE\EWARM/../Drivers/BSP/Components/at24cxx\
//        -I
//        D:\DLP_proj\DLP_github\MKS-DLP-FIRMWARE\EWARM/../Drivers/BSP/Components/w25qxx\
//        -I
//        D:\DLP_proj\DLP_github\MKS-DLP-FIRMWARE\EWARM/../Drivers/BSP/Components/ssd2828\
//        -I
//        D:\DLP_proj\DLP_github\MKS-DLP-FIRMWARE\EWARM/../Drivers/BSP/Components/lcd\
//        -I D:\DLP_proj\DLP_github\MKS-DLP-FIRMWARE\EWARM/../Drivers/libstmf4\
//        -I
//        D:\DLP_proj\DLP_github\MKS-DLP-FIRMWARE\EWARM/../Drivers/libstmf4/include\
//        -I
//        D:\DLP_proj\DLP_github\MKS-DLP-FIRMWARE\EWARM/../Middlewares/arduino/stm32/cores/arduino\
//        -I D:\DLP_proj\DLP_github\MKS-DLP-FIRMWARE\EWARM/../User/ui\ -I
//        D:\DLP_proj\DLP_github\MKS-DLP-FIRMWARE\EWARM/../User/ui/Multi_language\
//        -I D:\DLP_proj\DLP_github\MKS-DLP-FIRMWARE\EWARM/../User/ui/QRENCODE\
//        -I D:\DLP_proj\DLP_github\MKS-DLP-FIRMWARE\EWARM/../Middlewares/GUI\
//        -Om --eec++ -I "D:\Program Files (x86)\IAR Systems\Embedded Workbench
//        7.0\arm\CMSIS\Include\"
//    List file    =  
//        D:\DLP_proj\DLP_github\MKS-DLP-FIRMWARE\EWARM\mksDLP/List\Marlin_main.s
//
///////////////////////////////////////////////////////////////////////////////

        RTMODEL "__CPP_Language", "EC++"
        RTMODEL "__SystemLibrary", "DLib"
        RTMODEL "__dlib_file_descriptor", "1"
        RTMODEL "__dlib_full_locale_support", "1"
        RTMODEL "__iar_require _Printf", "floats,int_specials"
        AAPCS BASE,INTERWORK,VFP
        PRESERVE8
        REQUIRE8

        #define SHT_PROGBITS 0x1
        #define SHT_INIT_ARRAY 0xe

        EXTERN AT24CXX_Read
        EXTERN AT24CXX_Write
        EXTERN BMP_PIC_X
        EXTERN BMP_PIC_Y
        EXTERN GUI_DispStringAt
        EXTERN GUI_Exec
        EXTERN GUI_RefreshPage
        EXTERN GUI_SetBkColor
        EXTERN GUI_SetColor
        EXTERN GUI_TOUCH_Exec
        EXTERN HAL_Delay
        EXTERN HAL_GPIO_ReadPin
        EXTERN HAL_GPIO_WritePin
        EXTERN HAL_GetTick
        EXTERN HAL_SPI_Transmit_DMA
        EXTERN LCD_WriteRAM
        EXTERN LCD_WriteRAM_Prepare
        EXTERN LCD_setWindowArea
        EXTERN SPI1_ReadWriteByte
        EXTERN Serial6
        EXTERN TFT_screen
        EXTERN _Z10safe_delaym
        EXTERN _Z12wifi_loopingv
        EXTERN _Z14mksBeeperAlarmv
        EXTERN _Z17serial_echopair_PPKcS0_
        EXTERN _Z17serial_echopair_PPKcd
        EXTERN _Z17serial_echopair_PPKcf
        EXTERN _Z17serial_echopair_PPKci
        EXTERN _ZN10CardReader10removeFileEPc
        EXTERN _ZN10CardReader11openLogFileEPc
        EXTERN _ZN10CardReader11stopSDPrintEv
        EXTERN _ZN10CardReader12checkFilesysEh
        EXTERN _ZN10CardReader12pauseSDPrintEv
        EXTERN _ZN10CardReader13open_CBD_FileEPc
        EXTERN _ZN10CardReader13write_commandEPc
        EXTERN _ZN10CardReader14close_CBD_FileEv
        EXTERN _ZN10CardReader14startFileprintEv
        EXTERN _ZN10CardReader19printingHasFinishedEv
        EXTERN _ZN10CardReader2lsEv
        EXTERN _ZN10CardReader7releaseEv
        EXTERN _ZN10CardReader8getsdposEv
        EXTERN _ZN10CardReader8openFileEPcbb
        EXTERN _ZN10CardReader9closefileEb
        EXTERN _ZN10CardReader9getStatusEv
        EXTERN _ZN10CardReaderC1Ev
        EXTERN _ZN10USARTClass4readEv
        EXTERN _ZN10USARTClass5flushEv
        EXTERN _ZN10USARTClass5writeEh
        EXTERN _ZN10USARTClass9availableEv
        EXTERN _ZN11GCodeParser10string_argE
        EXTERN _ZN11GCodeParser11command_ptrE
        EXTERN _ZN11GCodeParser14command_letterE
        EXTERN _ZN11GCodeParser18volumetric_enabledE
        EXTERN _ZN11GCodeParser21unknown_command_errorEv
        EXTERN _ZN11GCodeParser5paramE
        EXTERN _ZN11GCodeParser5parseEPc
        EXTERN _ZN11GCodeParser7codenumE
        EXTERN _ZN11GCodeParser8codebitsE
        EXTERN _ZN11GCodeParser9value_ptrE
        EXTERN _ZN11Temperature12PID_autotuneEfaab
        EXTERN _ZN11Temperature13manage_heaterEv
        EXTERN _ZN11Temperature18target_temperatureE
        EXTERN _ZN11Temperature19current_temperatureE
        EXTERN _ZN11Temperature19disable_all_heatersEv
        EXTERN _ZN11Temperature21start_watching_heaterEh
        EXTERN _ZN11Temperature2KdE
        EXTERN _ZN11Temperature2KiE
        EXTERN _ZN11Temperature2KpE
        EXTERN _ZN11Temperature4initEv
        EXTERN _ZN14MarlinSettings4loadEv
        EXTERN _ZN14MarlinSettings4saveEv
        EXTERN _ZN14MarlinSettings5resetEv
        EXTERN _ZN14MarlinSettings6reportEb
        EXTERN _ZN5Print5printEPKc
        EXTERN _ZN5Print5printEdi
        EXTERN _ZN5Print5printEhi
        EXTERN _ZN5Print5printEii
        EXTERN _ZN5Print5printEji
        EXTERN _ZN5Print5printEli
        EXTERN _ZN7Planner12accelerationE
        EXTERN _ZN7Planner13filament_sizeE
        EXTERN _ZN7Planner14buffer_segmentERKfS1_S1_S1_S1_h
        EXTERN _ZN7Planner15flow_percentageE
        EXTERN _ZN7Planner15set_position_mmE8AxisEnumRKf
        EXTERN _ZN7Planner16_set_position_mmERKfS1_S1_S1_
        EXTERN _ZN7Planner17axis_steps_per_mmE
        EXTERN _ZN7Planner17block_buffer_headE
        EXTERN _ZN7Planner17block_buffer_tailE
        EXTERN _ZN7Planner17max_feedrate_mm_sE
        EXTERN _ZN7Planner17min_feedrate_mm_sE
        EXTERN _ZN7Planner18autotemp_M104_M109Ev
        EXTERN _ZN7Planner19check_axes_activityEv
        EXTERN _ZN7Planner19min_segment_time_usE
        EXTERN _ZN7Planner19refresh_positioningEv
        EXTERN _ZN7Planner19travel_accelerationE
        EXTERN _ZN7Planner20retract_accelerationE
        EXTERN _ZN7Planner21volumetric_multiplierE
        EXTERN _ZN7Planner24min_travel_feedrate_mm_sE
        EXTERN _ZN7Planner24reset_acceleration_ratesEv
        EXTERN _ZN7Planner26max_acceleration_mm_per_s2E
        EXTERN _ZN7Planner29max_acceleration_steps_per_s2E
        EXTERN _ZN7Planner32calculate_volumetric_multipliersEv
        EXTERN _ZN7Planner8e_factorE
        EXTERN _ZN7Planner8max_jerkE
        EXTERN _ZN7SSD28284initEv
        EXTERN _ZN7SSD28288sleep_inEv
        EXTERN _ZN7SSD28289sleep_outEv
        EXTERN _ZN7SSD2828C1Ev
        EXTERN _ZN7Stepper10quick_stopEv
        EXTERN _ZN7Stepper11synchronizeEv
        EXTERN _ZN7Stepper16report_positionsEv
        EXTERN _ZN7Stepper18finish_and_disableEv
        EXTERN _ZN7Stepper20get_axis_position_mmE8AxisEnum
        EXTERN _ZN7Stepper23cleaning_buffer_counterE
        EXTERN _ZN7Stepper4initEv
        EXTERN _ZN8Endstops12report_stateEv
        EXTERN _ZN8Endstops16enabled_globallyE
        EXTERN _ZN8Endstops16endstop_hit_bitsE
        EXTERN _ZN8Endstops4M119Ev
        EXTERN _ZN8Endstops7enabledE
        EXTERN _ZN9Stopwatch4stopEv
        EXTERN _ZN9Stopwatch5pauseEv
        EXTERN _ZN9Stopwatch5startEv
        EXTERN _ZN9Stopwatch8durationEv
        EXTERN _ZN9StopwatchC1Ev
        EXTERN __aeabi_d2f
        EXTERN __aeabi_d2uiz
        EXTERN __aeabi_dadd
        EXTERN __aeabi_ddiv
        EXTERN __aeabi_dmul
        EXTERN __aeabi_dsub
        EXTERN __aeabi_f2d
        EXTERN __aeabi_i2d
        EXTERN __aeabi_memcpy
        EXTERN __aeabi_memcpy4
        EXTERN __aeabi_ui2d
        EXTERN __iar_Strchr
        EXTERN __iar_Strrchr
        EXTERN __iar_Strstr
        EXTERN atan2f
        EXTERN atof
        EXTERN bmp_layer_buf
        EXTERN bmp_public_buf
        EXTERN clean_time_flg
        EXTERN clear_cur_ui
        EXTERN cosf
        EXTERN curFileName
        EXTERN default_preview_flg
        EXTERN disp_pre_gcode
        EXTERN disp_state
        EXTERN display_print_statue
        EXTERN draw_dialog
        EXTERN draw_printing
        EXTERN draw_ready_print
        EXTERN draw_status_clear
        EXTERN echomagic
        EXTERN epr_read_data
        EXTERN epr_write_data
        EXTERN errormagic
        EXTERN espGcodeFifo
        EXTERN exposure_msg_display
        EXTERN f_lseek
        EXTERN f_read
        EXTERN filament_det1_cnt
        EXTERN filament_det1_flg
        EXTERN filament_det1_high_cnt
        EXTERN filament_det1_high_flg
        EXTERN filament_det1_low_cnt
        EXTERN filament_det1_low_flg
        EXTERN filament_det2_cnt
        EXTERN filament_det2_flg
        EXTERN filament_det2_high_cnt
        EXTERN filament_det2_high_flg
        EXTERN filament_det2_low_cnt
        EXTERN filament_det2_low_flg
        EXTERN flash_preview_begin
        EXTERN floorf
        EXTERN from_flash_pic
        EXTERN gArrayGpioPin
        EXTERN gArrayGpioPort
        EXTERN gCfgItems
        EXTERN getTick
        EXTERN getTickDiff
        EXTERN hdma_spi1_tx
        EXTERN hspi1
        EXTERN ipPara
        EXTERN layer_pic_clean
        EXTERN layer_pic_display
        EXTERN leveling_first_time
        EXTERN logo_tick1
        EXTERN logo_tick2
        EXTERN memcpy
        EXTERN memset
        EXTERN mipi_te_cnt
        EXTERN mksCfg
        EXTERN parser
        EXTERN pause_resum
        EXTERN poweroff_det_cnt
        EXTERN poweroff_det_flg
        EXTERN poweroff_det_high_cnt
        EXTERN poweroff_det_high_flg
        EXTERN poweroff_det_low_cnt
        EXTERN poweroff_det_low_flg
        EXTERN preview_gcode_prehandle
        EXTERN print_time
        EXTERN reset_file_info
        EXTERN reset_print_time
        EXTERN setProBarRate
        EXTERN sinf
        EXTERN sprintf
        EXTERN sqrt
        EXTERN sqrtf
        EXTERN start_print_time
        EXTERN stop_print_time
        EXTERN strcat
        EXTERN strcmp
        EXTERN strcpy
        EXTERN strncpy
        EXTERN strtod
        EXTERN strtol
        EXTERN strtoul
        EXTERN temperature_change_frequency
        EXTERN thermalManager
        EXTERN time_1s_flg
        EXTERN wifiPara
        EXTERN wifi_check_time
        EXTERN wifi_link_state

        PUBLIC EXTI9_5_IRQHandler
        PUBLIC Line_Pixel
        PUBLIC Line_Pixel_TFT
        PUBLIC Running
        PUBLIC TimeIncrease
        PUBLIC _Z10clr_ticketv
        PUBLIC _Z10freeMemoryv
        PUBLIC _Z10gcode_M104v
        PUBLIC _Z10gcode_M105v
        PUBLIC _Z10gcode_M106v
        PUBLIC _Z10gcode_M107v
        PUBLIC _Z10gcode_M108v
        PUBLIC _Z10gcode_M109v
        PUBLIC _Z10gcode_M110v
        PUBLIC _Z10gcode_M111v
        PUBLIC _Z10gcode_M112v
        PUBLIC _Z10gcode_M114v
        PUBLIC _Z10gcode_M115v
        PUBLIC _Z10gcode_M117v
        PUBLIC _Z10gcode_M118v
        PUBLIC _Z10gcode_M119v
        PUBLIC _Z10gcode_M120v
        PUBLIC _Z10gcode_M121v
        PUBLIC _Z10gcode_M140v
        PUBLIC _Z10gcode_M200v
        PUBLIC _Z10gcode_M201v
        PUBLIC _Z10gcode_M203v
        PUBLIC _Z10gcode_M204v
        PUBLIC _Z10gcode_M205v
        PUBLIC _Z10gcode_M206v
        PUBLIC _Z10gcode_M211v
        PUBLIC _Z10gcode_M220v
        PUBLIC _Z10gcode_M221v
        PUBLIC _Z10gcode_M226v
        PUBLIC _Z10gcode_M301v
        PUBLIC _Z10gcode_M303v
        PUBLIC _Z10gcode_M355v
        PUBLIC _Z10gcode_M400v
        PUBLIC _Z10gcode_M410v
        PUBLIC _Z10gcode_M428v
        PUBLIC _Z10gcode_M500v
        PUBLIC _Z10gcode_M501v
        PUBLIC _Z10gcode_M502v
        PUBLIC _Z10gcode_M503v
        PUBLIC _Z10gcode_M907v
        PUBLIC _Z10gcode_M928v
        PUBLIC _Z10gcode_M998v
        PUBLIC _Z10gcode_M999v
        PUBLIC _Z10ok_to_sendv
        PUBLIC _Z10servo_initv
        PUBLIC _Z11InvertUint8PhS_
        PUBLIC _Z11gcode_G0_G1v
        PUBLIC _Z11gcode_G2_G3b
        PUBLIC _Z11lcd_refreshv
        PUBLIC _Z11tool_changehfb
        PUBLIC _Z12CRC16_XMODEMPhj
        PUBLIC _Z12InvertUint16PtS_
        PUBLIC _Z13find_next_bmpv
        PUBLIC _Z13gcode_M18_M84v
        PUBLIC _Z13home_all_axesv
        PUBLIC _Z13lcd_hasstatusv
        PUBLIC _Z13lcd_setstatusPKcb
        PUBLIC _Z13setup_killpinv
        PUBLIC _Z13strting2floatPhh
        PUBLIC _Z14mks_WriteToEprv
        PUBLIC _Z14serialprintPGMPKc
        PUBLIC _Z15_commit_commandb
        PUBLIC _Z15_enqueuecommandPKcb
        PUBLIC _Z15mks_setFeedratev
        PUBLIC _Z15setup_powerholdv
        PUBLIC _Z16gcode_line_errorPKcb
        PUBLIC _Z16lcd_setstatusPGMPKca
        PUBLIC _Z16mks_get_commandsv
        PUBLIC _Z17get_wifi_commandsv
        PUBLIC _Z17manage_inactivityb
        PUBLIC _Z17mkstft_ui_set_eprv
        PUBLIC _Z17quickstop_stepperv
        PUBLIC _Z17temper_error_killv
        PUBLIC _Z18axis_unhomed_errorb
        PUBLIC _Z18disable_e_steppersv
        PUBLIC _Z18mks_setTemperaturev
        PUBLIC _Z18sync_plan_positionv
        PUBLIC _Z19clear_command_queuev
        PUBLIC _Z19do_blocking_move_toRKfS0_S0_S0_
        PUBLIC _Z19enable_all_steppersv
        PUBLIC _Z19get_serial_commandsv
        PUBLIC _Z19refresh_cmd_timeoutv
        PUBLIC _Z20SysTick_Handler_Userv
        PUBLIC _Z20disable_all_steppersv
        PUBLIC _Z20display_temper_errorv
        PUBLIC _Z20process_next_commandv
        PUBLIC _Z20sync_plan_position_ev
        PUBLIC _Z21do_blocking_move_to_xRKfS0_
        PUBLIC _Z21do_blocking_move_to_zRKfS0_
        PUBLIC _Z21gcode_get_destinationv
        PUBLIC _Z21lcd_reset_alert_levelv
        PUBLIC _Z21lcd_setalertstatusPGMPKc
        PUBLIC _Z21mks_WriteToEpr_pwroffv
        PUBLIC _Z21soft_endstop_min_initv
        PUBLIC _Z22do_blocking_move_to_xyRKfS0_S0_
        PUBLIC _Z22get_available_commandsv
        PUBLIC _Z22invalid_extruder_errorh
        PUBLIC _Z22mks_ReadFromEpr_pwroffv
        PUBLIC _Z22process_parsed_commandv
        PUBLIC _Z22report_mksdlp_positionv
        PUBLIC _Z23report_current_positionv
        PUBLIC _Z24FlushSerialRequestResendv
        PUBLIC _Z24enqueue_and_echo_commandPKcb
        PUBLIC _Z24get_homing_bump_feedrate8AxisEnum
        PUBLIC _Z24update_software_endstops8AxisEnum
        PUBLIC _Z26buffer_line_to_destinationf
        PUBLIC _Z26clamp_to_software_endstopsPf
        PUBLIC _Z26do_blocking_move_to_nowaitRKfS0_S0_S0_
        PUBLIC _Z27enqueue_and_echo_commands_PPKc
        PUBLIC _Z27get_cartesian_from_steppersv
        PUBLIC _Z27prepare_move_to_destinationv
        PUBLIC _Z28do_blocking_move_to_z_nowaitRKfS0_
        PUBLIC _Z28set_current_from_destinationv
        PUBLIC _Z28set_destination_from_currentv
        PUBLIC _Z31buffer_line_to_current_positionv
        PUBLIC _Z32get_target_extruder_from_commandt
        PUBLIC _Z34set_current_from_steppers_for_axis8AxisEnum
        PUBLIC _Z37prepare_move_to_destination_cartesianv
        PUBLIC _Z4idlev
        PUBLIC _Z4killPKc
        PUBLIC _Z4stopv
        PUBLIC _Z5dwellm
        PUBLIC _Z6strchrPci
        PUBLIC _Z6strstrPcPKc
        PUBLIC _Z7gcode_Th
        PUBLIC _Z7mks_G28Pc
        PUBLIC _Z7pft_getv
        PUBLIC _Z7strrchrPci
        PUBLIC _Z7suicidev
        PUBLIC _Z8gcode_G4v
        PUBLIC _Z8lcd_initv
        PUBLIC _Z8plan_arcRA4_KfRA2_S_b
        PUBLIC _Z9IsRunningv
        PUBLIC _Z9IsStoppedv
        PUBLIC _Z9gcode_G28b
        PUBLIC _Z9gcode_G92v
        PUBLIC _Z9gcode_M17v
        PUBLIC _Z9gcode_M20v
        PUBLIC _Z9gcode_M22v
        PUBLIC _Z9gcode_M23v
        PUBLIC _Z9gcode_M24v
        PUBLIC _Z9gcode_M25v
        PUBLIC _Z9gcode_M26v
        PUBLIC _Z9gcode_M27v
        PUBLIC _Z9gcode_M28v
        PUBLIC _Z9gcode_M29v
        PUBLIC _Z9gcode_M30v
        PUBLIC _Z9gcode_M31v
        PUBLIC _Z9gcode_M32v
        PUBLIC _Z9gcode_M42v
        PUBLIC _Z9gcode_M75v
        PUBLIC _Z9gcode_M76v
        PUBLIC _Z9gcode_M77v
        PUBLIC _Z9gcode_M81v
        PUBLIC _Z9gcode_M82v
        PUBLIC _Z9gcode_M83v
        PUBLIC _Z9gcode_M85v
        PUBLIC _Z9gcode_M92v
        PUBLIC _ZN10CardReader10isFileOpenEv
        PUBLIC _ZN10CardReader3eofEv
        PUBLIC _ZN10CardReader4getsEPhj
        PUBLIC _ZN10CardReader8setIndexEl
        PUBLIC _ZN10duration_tC1ERKj
        PUBLIC _ZN11GCodeParser10celsiusvalEcf
        PUBLIC _ZN11GCodeParser10value_boolEv
        PUBLIC _ZN11GCodeParser10value_byteEv
        PUBLIC _ZN11GCodeParser10value_longEv
        PUBLIC _ZN11GCodeParser11value_floatEv
        PUBLIC _ZN11GCodeParser11value_ulongEv
        PUBLIC _ZN11GCodeParser12value_millisEv
        PUBLIC _ZN11GCodeParser12value_ushortEv
        PUBLIC _ZN11GCodeParser13value_celsiusEv
        PUBLIC _ZN11GCodeParser14value_feedrateEv
        PUBLIC _ZN11GCodeParser16value_axis_unitsE8AxisEnum
        PUBLIC _ZN11GCodeParser18value_linear_unitsEv
        PUBLIC _ZN11GCodeParser19value_per_axis_unitE8AxisEnum
        PUBLIC _ZN11GCodeParser25value_millis_from_secondsEv
        PUBLIC _ZN11GCodeParser4seenEc
        PUBLIC _ZN11GCodeParser6intvalEcs
        PUBLIC _ZN11GCodeParser7boolvalEc
        PUBLIC _ZN11GCodeParser7bytevalEch
        PUBLIC _ZN11GCodeParser7seenvalEc
        PUBLIC _ZN11GCodeParser9has_valueEv
        PUBLIC _ZN11GCodeParser9linearvalEcf
        PUBLIC _ZN11GCodeParser9ushortvalEct
        PUBLIC _ZN11GCodeParser9value_intEv
        PUBLIC _ZN11Temperature12setTargetBedEf
        PUBLIC _ZN11Temperature15degTargetHotendEh
        PUBLIC _ZN11Temperature15isCoolingHotendEh
        PUBLIC _ZN11Temperature15setTargetHotendEfh
        PUBLIC _ZN11Temperature9degHotendEh
        PUBLIC _ZN11Temperature9updatePIDEv
        PUBLIC _ZN7MKS_DLP10get_HeightEv
        PUBLIC _ZN7MKS_DLP10pausePrintEv
        PUBLIC _ZN7MKS_DLP10quick_stopEv
        PUBLIC _ZN7MKS_DLP11buzzer_toneEtth
        PUBLIC _ZN7MKS_DLP11resumePrintEv
        PUBLIC _ZN7MKS_DLP11set_ZoffsetEv
        PUBLIC _ZN7MKS_DLP11status_initEv
        PUBLIC _ZN7MKS_DLP12ExposureTestEv
        PUBLIC _ZN7MKS_DLP12get_cpld_verEv
        PUBLIC _ZN7MKS_DLP13buzzer_enableEh
        PUBLIC _ZN7MKS_DLP13draw_printingEv
        PUBLIC _ZN7MKS_DLP13get_LedOnTimeEv
        PUBLIC _ZN7MKS_DLP13line_gen_dataEth
        PUBLIC _ZN7MKS_DLP13set_LedOnTimeEt
        PUBLIC _ZN7MKS_DLP14CleanDataTransEv
        PUBLIC _ZN7MKS_DLP14ExposureAll_onEv
        PUBLIC _ZN7MKS_DLP14bank2disp_readEv
        PUBLIC _ZN7MKS_DLP14buzzer_pollingEv
        PUBLIC _ZN7MKS_DLP14get_LedOffTimeEv
        PUBLIC _ZN7MKS_DLP14line_fill_zeroEth
        PUBLIC _ZN7MKS_DLP14moveRelative_ZEff
        PUBLIC _ZN7MKS_DLP14reTransmissionEv
        PUBLIC _ZN7MKS_DLP14set_LedOffTimeEt
        PUBLIC _ZN7MKS_DLP14startFileprintEv
        PUBLIC _ZN7MKS_DLP15ExposureAll_offEv
        PUBLIC _ZN7MKS_DLP15get_sdcard_bmpsEv
        PUBLIC _ZN7MKS_DLP15get_totalLayersEv
        PUBLIC _ZN7MKS_DLP15moveFistLayer_ZEv
        PUBLIC _ZN7MKS_DLP16Can_Resume_PrintEv
        PUBLIC _ZN7MKS_DLP16TFT_display_testEv
        PUBLIC _ZN7MKS_DLP16bank2disp_enableEhhh
        PUBLIC _ZN7MKS_DLP16bottomLayerPrintEv
        PUBLIC _ZN7MKS_DLP16get_BottomlayersEv
        PUBLIC _ZN7MKS_DLP16get_currentLayerEv
        PUBLIC _ZN7MKS_DLP16get_ttfStatus_ONEv
        PUBLIC _ZN7MKS_DLP16set_BottomlayersEt
        PUBLIC _ZN7MKS_DLP17PrintStatePollingEv
        PUBLIC _ZN7MKS_DLP17get_buzzer_statusEv
        PUBLIC _ZN7MKS_DLP17get_ttfStatus_OFFEv
        PUBLIC _ZN7MKS_DLP17line_fill_all_oneEh
        PUBLIC _ZN7MKS_DLP17line_gen_data_TFTEt
        PUBLIC _ZN7MKS_DLP18GeneralLayersPrintEv
        PUBLIC _ZN7MKS_DLP18Is_Paused_FinishedEv
        PUBLIC _ZN7MKS_DLP18contiuePrint_PwdwnEv
        PUBLIC _ZN7MKS_DLP18get_available_bmpsEv
        PUBLIC _ZN7MKS_DLP18get_totalPrintTimeEv
        PUBLIC _ZN7MKS_DLP18line_fill_all_zeroEcth
        PUBLIC _ZN7MKS_DLP18startFileprint_cbdEv
        PUBLIC _ZN7MKS_DLP19contiuePrint_pausedEv
        PUBLIC _ZN7MKS_DLP19get_BottomLedOnTimeEv
        PUBLIC _ZN7MKS_DLP19printingHasFinishedEv
        PUBLIC _ZN7MKS_DLP19set_BottomLedOnTimeEt
        PUBLIC _ZN7MKS_DLP20get_currentPrintTimeEv
        PUBLIC _ZN7MKS_DLP21bank2disp_enable_grayEhhhh
        PUBLIC _ZN7MKS_DLP21decode_layer_from_rleEjh
        PUBLIC _ZN7MKS_DLP22get_cbddlp_file_headerEv
        PUBLIC _ZN7MKS_DLP22moveRelativeZandGetBmpEff
        PUBLIC _ZN7MKS_DLP22read_Information_layerEv
        PUBLIC _ZN7MKS_DLP22set_test_exposure_timeEt
        PUBLIC _ZN7MKS_DLP23ExposureData2TFT_circleEv
        PUBLIC _ZN7MKS_DLP23clean_Information_layerEv
        PUBLIC _ZN7MKS_DLP23draw_return_printing_uiEv
        PUBLIC _ZN7MKS_DLP23read_Information_pausedEv
        PUBLIC _ZN7MKS_DLP23write_Information_layerE15DLP_MOVE_STATUS
        PUBLIC _ZN7MKS_DLP24ExposureDataTrans_circleEv
        PUBLIC _ZN7MKS_DLP24ExposureDataTrans_squareEv
        PUBLIC _ZN7MKS_DLP24get_cbddlp_cur_layer_defEj
        PUBLIC _ZN7MKS_DLP24get_cbddlp_preview1_infoEv
        PUBLIC _ZN7MKS_DLP24get_cbddlp_preview2_infoEv
        PUBLIC _ZN7MKS_DLP24write_Information_pausedEv
        PUBLIC _ZN7MKS_DLP26get_cbddlp_print_para_infoEv
        PUBLIC _ZN7MKS_DLP6led_onEv
        PUBLIC _ZN7MKS_DLP7getHeadEv
        PUBLIC _ZN7MKS_DLP7led_offEv
        PUBLIC _ZN7MKS_DLP8getHead1Ev
        PUBLIC _ZN7MKS_DLP8getHead2Ev
        PUBLIC _ZN7MKS_DLP8power_onEv
        PUBLIC _ZN7MKS_DLP9dlp_startEv
        PUBLIC _ZN7MKS_DLP9grag_testEv
        PUBLIC _ZN7MKS_DLP9moveMax_ZEv
        PUBLIC _ZN7MKS_DLP9power_offEv
        PUBLIC _ZN7MKS_DLP9stopPrintEv
        PUBLIC _ZN7MKS_DLPC1Ev
        PUBLIC _ZN7MKS_DLPC2Ev
        PUBLIC _ZN7Planner11buffer_lineEfffRKfS1_h
        PUBLIC _ZN7Planner13blocks_queuedEv
        PUBLIC _ZN7Planner15set_position_mmEfffRKf
        PUBLIC _ZN7Planner16refresh_e_factorEh
        PUBLIC _ZN7Planner17set_e_position_mmERKf
        PUBLIC _ZN7Planner17set_filament_sizeEhRKf
        PUBLIC _ZN7Planner21buffer_line_kinematicERA4_KfRS0_h
        PUBLIC _ZN8Endstops10not_homingEv
        PUBLIC _ZN8Endstops14hit_on_purposeEv
        PUBLIC _ZN8Endstops15enable_globallyEb
        PUBLIC _ZN8Endstops6enableEb
        PUBLIC _ZNK10duration_t3dayEv
        PUBLIC _ZNK10duration_t4hourEv
        PUBLIC _ZNK10duration_t4yearEv
        PUBLIC _ZNK10duration_t6minuteEv
        PUBLIC _ZNK10duration_t6secondEv
        PUBLIC _ZNK10duration_t8toStringEPc
        PUBLIC _ZTI5Print
        PUBLIC _ZZ10gcode_M104vEs
        PUBLIC _ZZ10gcode_M104vEs_0
        PUBLIC _ZZ10gcode_M104vEs_1
        PUBLIC _ZZ10gcode_M104vEs_2
        PUBLIC _ZZ10gcode_M104vEs_3
        PUBLIC _ZZ10gcode_M104vEs_4
        PUBLIC _ZZ10gcode_M105vEs
        PUBLIC _ZZ10gcode_M109vEs
        PUBLIC _ZZ10gcode_M109vEs_0
        PUBLIC _ZZ10gcode_M109vEs_1
        PUBLIC _ZZ10gcode_M109vEs_2
        PUBLIC _ZZ10gcode_M109vEs_3
        PUBLIC _ZZ10gcode_M109vEs_4
        PUBLIC _ZZ10gcode_M109vEs_5
        PUBLIC _ZZ10gcode_M109vEs_6
        PUBLIC _ZZ10gcode_M111vE11str_debug_1
        PUBLIC _ZZ10gcode_M111vE11str_debug_2
        PUBLIC _ZZ10gcode_M111vE11str_debug_4
        PUBLIC _ZZ10gcode_M111vE11str_debug_8
        PUBLIC _ZZ10gcode_M111vE12str_debug_16
        PUBLIC _ZZ10gcode_M111vE13debug_strings
        PUBLIC _ZZ10gcode_M111vEs_4
        PUBLIC _ZZ10gcode_M111vEs_5
        PUBLIC _ZZ10gcode_M112vEs
        PUBLIC _ZZ10gcode_M115vEs
        PUBLIC _ZZ10gcode_M115vEs_0
        PUBLIC _ZZ10gcode_M115vEs_1
        PUBLIC _ZZ10gcode_M115vEs_2
        PUBLIC _ZZ10gcode_M115vEs_3
        PUBLIC _ZZ10gcode_M115vEs_4
        PUBLIC _ZZ10gcode_M115vEs_5
        PUBLIC _ZZ10gcode_M115vEs_6
        PUBLIC _ZZ10gcode_M115vEs_7
        PUBLIC _ZZ10gcode_M115vEs_8
        PUBLIC _ZZ10gcode_M115vEs_9
        PUBLIC _ZZ10gcode_M115vEs__10_
        PUBLIC _ZZ10gcode_M115vEs__11_
        PUBLIC _ZZ10gcode_M115vEs__12_
        PUBLIC _ZZ10gcode_M115vEs__13_
        PUBLIC _ZZ10gcode_M118vEs
        PUBLIC _ZZ10gcode_M204vEs
        PUBLIC _ZZ10gcode_M204vEs_0
        PUBLIC _ZZ10gcode_M204vEs_1
        PUBLIC _ZZ10gcode_M204vEs_2
        PUBLIC _ZZ10gcode_M211vEs
        PUBLIC _ZZ10gcode_M211vEs_0
        PUBLIC _ZZ10gcode_M211vEs_1
        PUBLIC _ZZ10gcode_M211vEs_2
        PUBLIC _ZZ10gcode_M211vEs_3
        PUBLIC _ZZ10gcode_M211vEs_4
        PUBLIC _ZZ10gcode_M211vEs_5
        PUBLIC _ZZ10gcode_M211vEs_6
        PUBLIC _ZZ10gcode_M301vEs
        PUBLIC _ZZ10gcode_M301vEs_0
        PUBLIC _ZZ10gcode_M301vEs_1
        PUBLIC _ZZ10gcode_M301vEs_2
        PUBLIC _ZZ10gcode_M355vEs
        PUBLIC _ZZ10gcode_M428vEs
        PUBLIC _ZZ10gcode_M428vEs_0
        PUBLIC _ZZ10gcode_M428vEs_1
        PUBLIC _ZZ11gcode_G2_G3bEs
        PUBLIC _ZZ17get_wifi_commandsvE16wifi_line_buffer
        PUBLIC _ZZ17get_wifi_commandsvE17wifi_comment_mode
        PUBLIC _ZZ17get_wifi_commandsvEs
        PUBLIC _ZZ17get_wifi_commandsvEs_0
        PUBLIC _ZZ17get_wifi_commandsvEs_1
        PUBLIC _ZZ17get_wifi_commandsvEs_2
        PUBLIC _ZZ17get_wifi_commandsvEs_3
        PUBLIC _ZZ17get_wifi_commandsvEs_4
        PUBLIC _ZZ19get_serial_commandsvE14last_wait_time
        PUBLIC _ZZ19get_serial_commandsvE18serial_line_buffer
        PUBLIC _ZZ19get_serial_commandsvE19serial_comment_mode
        PUBLIC _ZZ19get_serial_commandsvEs
        PUBLIC _ZZ19get_serial_commandsvEs_0
        PUBLIC _ZZ19get_serial_commandsvEs_1
        PUBLIC _ZZ19get_serial_commandsvEs_2
        PUBLIC _ZZ19get_serial_commandsvEs_3
        PUBLIC _ZZ19get_serial_commandsvEs_4
        PUBLIC _ZZ19get_serial_commandsvEs_5
        PUBLIC _ZZ19get_serial_commandsvEs_6
        PUBLIC _ZZ19get_serial_commandsvEs_7
        PUBLIC _ZZ19get_serial_commandsvEs_8
        PUBLIC _ZZ22invalid_extruder_errorhEs
        PUBLIC _ZZ24get_homing_bump_feedrate8AxisEnumEs
        PUBLIC _ZZ8gcode_G4vEs
        PUBLIC _ZZ9gcode_M17vEs
        PUBLIC _ZZ9gcode_M20vEs
        PUBLIC _ZZ9gcode_M20vEs_0
        PUBLIC _ZZ9gcode_M31vEs
        PUBLIC _ZZ9gcode_M42vEs
        PUBLIC _ZZNK10duration_t8toStringEPcEs
        PUBLIC _ZZNK10duration_t8toStringEPcEs_0
        PUBLIC _ZZNK10duration_t8toStringEPcEs_1
        PUBLIC _ZZNK10duration_t8toStringEPcEs_2
        PUBLIC _ZZNK10duration_t8toStringEPcEs_3
        PUBLIC aalay_cnt
        PUBLIC active_extruder
        PUBLIC axis_homed
        PUBLIC axis_known_position
        PUBLIC axis_relative_modes
        PUBLIC base_home_pos_P
        PUBLIC base_max_pos_P
        PUBLIC base_min_pos_P
        PUBLIC btn_beep_cnt
        PUBLIC btn_beeper
        PUBLIC btn_flg
        PUBLIC card
        PUBLIC cartes
        PUBLIC cbddlp_file_header
        PUBLIC cloud_refresh_flg
        PUBLIC commands_in_queue
        PUBLIC continue_print_error_flg
        PUBLIC ctemp
        PUBLIC current_position
        PUBLIC destination
        PUBLIC fanSpeeds
        PUBLIC feedrate_mm_s
        PUBLIC feedrate_percentage
        PUBLIC from_wifi_flag
        PUBLIC get_pic_display
        PUBLIC get_pic_info
        PUBLIC home_bump_mm_P
        PUBLIC home_dir_P
        PUBLIC home_offset
        PUBLIC homing_feedrate_mm_s
        PUBLIC kill_c
        PUBLIC layer_def
        PUBLIC loop
        PUBLIC marlin_debug_flags
        PUBLIC max_length_P
        PUBLIC mksReprint
        PUBLIC mks_PrintStatePolling
        PUBLIC mks_ReadFromEpr
        PUBLIC mks_ReadFromFile
        PUBLIC mks_WriteToFile
        PUBLIC mks_clearDir
        PUBLIC mks_clearFile
        PUBLIC mks_contiuePrintDelta
        PUBLIC mks_contiuePrintPause
        PUBLIC mks_contiuePrintPwdwn
        PUBLIC mks_contiuePrint_UI
        PUBLIC mks_getPositionXYZE
        PUBLIC mks_heating_busy
        PUBLIC mks_initPrint
        PUBLIC mks_manual_leveling
        PUBLIC mks_moveXY
        PUBLIC mks_moveZ
        PUBLIC mks_pausePrint
        PUBLIC mks_pft_name
        PUBLIC mks_preExtrude
        PUBLIC mks_rePrintCheck
        PUBLIC mks_resumePrint
        PUBLIC mks_saveFileName
        PUBLIC mks_setPositionZ
        PUBLIC mksdlp
        PUBLIC mkstft_ui_init
        PUBLIC mkstft_ui_load
        PUBLIC position_shift
        PUBLIC preview_no_display
        PUBLIC preview_pic1
        PUBLIC preview_pic2
        PUBLIC previous_cmd_ms
        PUBLIC print_job_timer
        PUBLIC print_para
        PUBLIC printing_rate_update_flag
        PUBLIC reTransmission_all_cnt
        PUBLIC reTransmission_data_cnt
        PUBLIC reTransmission_zero_cnt
        PUBLIC saved_feedrate_percentage
        PUBLIC serial_wait_tick
        PUBLIC setup
        PUBLIC soft_endstop_max
        PUBLIC soft_endstop_min
        PUBLIC soft_endstops_enabled
        PUBLIC spi1_hdmatx_CR
        PUBLIC t1
        PUBLIC t12
        PUBLIC t2
        PUBLIC target_extruder
        PUBLIC temper_error_flg
        PUBLIC wait_for_heatup
        PUBLIC waiting_wifi_time
        PUBLIC wifi_init_flg
        PUBLIC wifi_init_state
        PUBLIC wifi_loop_cycle
        PUBLIC wifi_refresh_flg
        PUBLIC workspace_offset
        PUBLIC z_high_count
        
          CFI Names cfiNames0
          CFI StackFrame CFA R13 DATA
          CFI Resource R0:32, R1:32, R2:32, R3:32, R4:32, R5:32, R6:32, R7:32
          CFI Resource R8:32, R9:32, R10:32, R11:32, R12:32, R13:32, R14:32
          CFI Resource D0:64, D1:64, D2:64, D3:64, D4:64, D5:64, D6:64, D7:64
          CFI Resource D8:64, D9:64, D10:64, D11:64, D12:64, D13:64, D14:64
          CFI Resource D15:64
          CFI EndNames cfiNames0
        
          CFI Common cfiCommon0 Using cfiNames0
          CFI CodeAlign 2
          CFI DataAlign 4
          CFI ReturnAddress R14 CODE
          CFI CFA R13+0
          CFI R0 Undefined
          CFI R1 Undefined
          CFI R2 Undefined
          CFI R3 Undefined
          CFI R4 SameValue
          CFI R5 SameValue
          CFI R6 SameValue
          CFI R7 SameValue
          CFI R8 SameValue
          CFI R9 SameValue
          CFI R10 SameValue
          CFI R11 SameValue
          CFI R12 Undefined
          CFI R14 SameValue
          CFI D0 Undefined
          CFI D1 Undefined
          CFI D2 Undefined
          CFI D3 Undefined
          CFI D4 Undefined
          CFI D5 Undefined
          CFI D6 Undefined
          CFI D7 Undefined
          CFI D8 SameValue
          CFI D9 SameValue
          CFI D10 SameValue
          CFI D11 SameValue
          CFI D12 SameValue
          CFI D13 SameValue
          CFI D14 SameValue
          CFI D15 SameValue
          CFI EndCommon cfiCommon0
        

        SECTION `.text`:CODE:NOROOT(1)
          CFI Block cfiBlock0 Using cfiCommon0
          CFI Function _ZN7MKS_DLPC2Ev
          CFI FunCall _ZN7MKS_DLPC1Ev
        THUMB
// __code __interwork __softfp MKS_DLP::subobject MKS_DLP()
_ZN7MKS_DLPC2Ev:
        B.W      _ZN7MKS_DLPC1Ev
          CFI EndBlock cfiBlock0
// D:\DLP_proj\DLP_github\MKS-DLP-FIRMWARE\Middlewares\Third_Party\Marlin\Marlin_main.cpp
//    1 /**
//    2  * Marlin 3D Printer Firmware
//    3  * Copyright (C) 2016, 2017 MarlinFirmware [https://github.com/MarlinFirmware/Marlin]
//    4  *
//    5  * Based on Sprinter and grbl.
//    6  * Copyright (C) 2011 Camiel Gubbels / Erik van der Zalm
//    7  *
//    8  * This program is free software: you can redistribute it and/or modify
//    9  * it under the terms of the GNU General Public License as published by
//   10  * the Free Software Foundation, either version 3 of the License, or
//   11  * (at your option) any later version.
//   12  *
//   13  * This program is distributed in the hope that it will be useful,
//   14  * but WITHOUT ANY WARRANTY; without even the implied warranty of
//   15  * MERCHANTABILITY or FITNESS FOR A PARTICULAR PURPOSE.  See the
//   16  * GNU General Public License for more details.
//   17  *
//   18  * You should have received a copy of the GNU General Public License
//   19  * along with this program.  If not, see <http://www.gnu.org/licenses/>.
//   20  *
//   21  */
//   22 
//   23 /**
//   24  * About Marlin
//   25  *
//   26  * This firmware is a mashup between Sprinter and grbl.
//   27  *  - https://github.com/kliment/Sprinter
//   28  *  - https://github.com/simen/grbl/tree
//   29  */
//   30 
//   31 /**
//   32  * -----------------
//   33  * G-Codes in Marlin
//   34  * -----------------
//   35  *
//   36  * Helpful G-code references:
//   37  *  - http://linuxcnc.org/handbook/gcode/g-code.html
//   38  *  - http://objects.reprap.org/wiki/Mendel_User_Manual:_RepRapGCodes
//   39  *
//   40  * Help to document Marlin's G-codes online:
//   41  *  - http://reprap.org/wiki/G-code
//   42  *  - https://github.com/MarlinFirmware/MarlinDocumentation
//   43  *
//   44  * -----------------
//   45  *
//   46  * "G" Codes
//   47  *
//   48  * G0   -> G1
//   49  * G1   - Coordinated Movement X Y Z E
//   50  * G2   - CW ARC
//   51  * G3   - CCW ARC
//   52  * G4   - Dwell S<seconds> or P<milliseconds>
//   53  * G5   - Cubic B-spline with XYZE destination and IJPQ offsets
//   54  * G10  - Retract filament according to settings of M207 (Requires FWRETRACT)
//   55  * G11  - Retract recover filament according to settings of M208 (Requires FWRETRACT)
//   56  * G12  - Clean tool (Requires NOZZLE_CLEAN_FEATURE)
//   57  * G17  - Select Plane XY (Requires CNC_WORKSPACE_PLANES)
//   58  * G18  - Select Plane ZX (Requires CNC_WORKSPACE_PLANES)
//   59  * G19  - Select Plane YZ (Requires CNC_WORKSPACE_PLANES)
//   60  * G20  - Set input units to inches (Requires INCH_MODE_SUPPORT)
//   61  * G21  - Set input units to millimeters (Requires INCH_MODE_SUPPORT)
//   62  * G26  - Mesh Validation Pattern (Requires G26_MESH_VALIDATION)
//   63  * G27  - Park Nozzle (Requires NOZZLE_PARK_FEATURE)
//   64  * G28  - Home one or more axes
//   65  * G29  - Start or continue the bed leveling probe procedure (Requires bed leveling)
//   66  * G30  - Single Z probe, probes bed at X Y location (defaults to current XY location)
//   67  * G31  - Dock sled (Z_PROBE_SLED only)
//   68  * G32  - Undock sled (Z_PROBE_SLED only)
//   69  * G33  - Delta Auto-Calibration (Requires DELTA_AUTO_CALIBRATION)
//   70  * G38  - Probe in any direction using the Z_MIN_PROBE (Requires G38_PROBE_TARGET)
//   71  * G42  - Coordinated move to a mesh point (Requires MESH_BED_LEVELING, AUTO_BED_LEVELING_BLINEAR, or AUTO_BED_LEVELING_UBL)
//   72  * G90  - Use Absolute Coordinates
//   73  * G91  - Use Relative Coordinates
//   74  * G92  - Set current position to coordinates given
//   75  *
//   76  * "M" Codes
//   77  *
//   78  * M0   - Unconditional stop - Wait for user to press a button on the LCD (Only if ULTRA_LCD is enabled)
//   79  * M1   -> M0
//   80  * M3   - Turn laser/spindle on, set spindle/laser speed/power, set rotation to clockwise
//   81  * M4   - Turn laser/spindle on, set spindle/laser speed/power, set rotation to counter-clockwise
//   82  * M5   - Turn laser/spindle off
//   83  * M17  - Enable/Power all stepper motors
//   84  * M18  - Disable all stepper motors; same as M84
//   85  * M20  - List SD card. (Requires SDSUPPORT)
//   86  * M21  - Init SD card. (Requires SDSUPPORT)
//   87  * M22  - Release SD card. (Requires SDSUPPORT)
//   88  * M23  - Select SD file: "M23 /path/file.gco". (Requires SDSUPPORT)
//   89  * M24  - Start/resume SD print. (Requires SDSUPPORT)
//   90  * M25  - Pause SD print. (Requires SDSUPPORT)
//   91  * M26  - Set SD position in bytes: "M26 S12345". (Requires SDSUPPORT)
//   92  * M27  - Report SD print status. (Requires SDSUPPORT)
//   93  * M28  - Start SD write: "M28 /path/file.gco". (Requires SDSUPPORT)
//   94  * M29  - Stop SD write. (Requires SDSUPPORT)
//   95  * M30  - Delete file from SD: "M30 /path/file.gco"
//   96  * M31  - Report time since last M109 or SD card start to serial.
//   97  * M32  - Select file and start SD print: "M32 [S<bytepos>] !/path/file.gco#". (Requires SDSUPPORT)
//   98  *        Use P to run other files as sub-programs: "M32 P !filename#"
//   99  *        The '#' is necessary when calling from within sd files, as it stops buffer prereading
//  100  * M33  - Get the longname version of a path. (Requires LONG_FILENAME_HOST_SUPPORT)
//  101  * M34  - Set SD Card sorting options. (Requires SDCARD_SORT_ALPHA)
//  102  * M42  - Change pin status via gcode: M42 P<pin> S<value>. LED pin assumed if P is omitted.
//  103  * M43  - Display pin status, watch pins for changes, watch endstops & toggle LED, Z servo probe test, toggle pins
//  104  * M48  - Measure Z Probe repeatability: M48 P<points> X<pos> Y<pos> V<level> E<engage> L<legs>. (Requires Z_MIN_PROBE_REPEATABILITY_TEST)
//  105  * M75  - Start the print job timer.
//  106  * M76  - Pause the print job timer.
//  107  * M77  - Stop the print job timer.
//  108  * M78  - Show statistical information about the print jobs. (Requires PRINTCOUNTER)
//  109  * M80  - Turn on Power Supply. (Requires POWER_SUPPLY > 0)
//  110  * M81  - Turn off Power Supply. (Requires POWER_SUPPLY > 0)
//  111  * M82  - Set E codes absolute (default).
//  112  * M83  - Set E codes relative while in Absolute (G90) mode.
//  113  * M84  - Disable steppers until next move, or use S<seconds> to specify an idle
//  114  *        duration after which steppers should turn off. S0 disables the timeout.
//  115  * M85  - Set inactivity shutdown timer with parameter S<seconds>. To disable set zero (default)
//  116  * M92  - Set planner.axis_steps_per_mm for one or more axes.
//  117  * M100 - Watch Free Memory (for debugging) (Requires M100_FREE_MEMORY_WATCHER)
//  118  * M104 - Set extruder target temp.
//  119  * M105 - Report current temperatures.
//  120  * M106 - Set print fan speed.
//  121  * M107 - Print fan off.
//  122  * M108 - Break out of heating loops (M109, M190, M303). With no controller, breaks out of M0/M1. (Requires EMERGENCY_PARSER)
//  123  * M109 - Sxxx Wait for extruder current temp to reach target temp. Waits only when heating
//  124  *        Rxxx Wait for extruder current temp to reach target temp. Waits when heating and cooling
//  125  *        If AUTOTEMP is enabled, S<mintemp> B<maxtemp> F<factor>. Exit autotemp by any M109 without F
//  126  * M110 - Set the current line number. (Used by host printing)
//  127  * M111 - Set debug flags: "M111 S<flagbits>". See flag bits defined in enum.h.
//  128  * M112 - Emergency stop.
//  129  * M113 - Get or set the timeout interval for Host Keepalive "busy" messages. (Requires HOST_KEEPALIVE_FEATURE)
//  130  * M114 - Report current position.
//  131  * M115 - Report capabilities. (Extended capabilities requires EXTENDED_CAPABILITIES_REPORT)
//  132  * M117 - Display a message on the controller screen. (Requires an LCD)
//  133  * M118 - Display a message in the host console.
//  134  * M119 - Report endstops status.
//  135  * M120 - Enable endstops detection.
//  136  * M121 - Disable endstops detection.
//  137  * M122 - Debug stepper (Requires HAVE_TMC2130)
//  138  * M125 - Save current position and move to filament change position. (Requires PARK_HEAD_ON_PAUSE)
//  139  * M126 - Solenoid Air Valve Open. (Requires BARICUDA)
//  140  * M127 - Solenoid Air Valve Closed. (Requires BARICUDA)
//  141  * M128 - EtoP Open. (Requires BARICUDA)
//  142  * M129 - EtoP Closed. (Requires BARICUDA)
//  143  * M140 - Set bed target temp. S<temp>
//  144  * M145 - Set heatup values for materials on the LCD. H<hotend> B<bed> F<fan speed> for S<material> (0=PLA, 1=ABS)
//  145  * M149 - Set temperature units. (Requires TEMPERATURE_UNITS_SUPPORT)
//  146  * M150 - Set Status LED Color as R<red> U<green> B<blue> P<bright>. Values 0-255. (Requires BLINKM, RGB_LED, RGBW_LED, NEOPIXEL_LED, or PCA9632).
//  147  * M155 - Auto-report temperatures with interval of S<seconds>. (Requires AUTO_REPORT_TEMPERATURES)
//  148  * M163 - Set a single proportion for a mixing extruder. (Requires MIXING_EXTRUDER)
//  149  * M164 - Save the mix as a virtual extruder. (Requires MIXING_EXTRUDER and MIXING_VIRTUAL_TOOLS)
//  150  * M165 - Set the proportions for a mixing extruder. Use parameters ABCDHI to set the mixing factors. (Requires MIXING_EXTRUDER)
//  151  * M190 - Sxxx Wait for bed current temp to reach target temp. ** Waits only when heating! **
//  152  *        Rxxx Wait for bed current temp to reach target temp. ** Waits for heating or cooling. **
//  153  * M200 - Set filament diameter, D<diameter>, setting E axis units to cubic. (Use S0 to revert to linear units.)
//  154  * M201 - Set max acceleration in units/s^2 for print moves: "M201 X<accel> Y<accel> Z<accel> E<accel>"
//  155  * M202 - Set max acceleration in units/s^2 for travel moves: "M202 X<accel> Y<accel> Z<accel> E<accel>" ** UNUSED IN MARLIN! **
//  156  * M203 - Set maximum feedrate: "M203 X<fr> Y<fr> Z<fr> E<fr>" in units/sec.
//  157  * M204 - Set default acceleration in units/sec^2: P<printing> R<extruder_only> T<travel>
//  158  * M205 - Set advanced settings. Current units apply:
//  159             S<print> T<travel> minimum speeds
//  160             B<minimum segment time>
//  161             X<max X jerk>, Y<max Y jerk>, Z<max Z jerk>, E<max E jerk>
//  162  * M206 - Set additional homing offset. (Disabled by NO_WORKSPACE_OFFSETS or DELTA)
//  163  * M207 - Set Retract Length: S<length>, Feedrate: F<units/min>, and Z lift: Z<distance>. (Requires FWRETRACT)
//  164  * M208 - Set Recover (unretract) Additional (!) Length: S<length> and Feedrate: F<units/min>. (Requires FWRETRACT)
//  165  * M209 - Turn Automatic Retract Detection on/off: S<0|1> (For slicers that don't support G10/11). (Requires FWRETRACT)
//  166           Every normal extrude-only move will be classified as retract depending on the direction.
//  167  * M211 - Enable, Disable, and/or Report software endstops: S<0|1> (Requires MIN_SOFTWARE_ENDSTOPS or MAX_SOFTWARE_ENDSTOPS)
//  168  * M218 - Set a tool offset: "M218 T<index> X<offset> Y<offset>". (Requires 2 or more extruders)
//  169  * M220 - Set Feedrate Percentage: "M220 S<percent>" (i.e., "FR" on the LCD)
//  170  * M221 - Set Flow Percentage: "M221 S<percent>"
//  171  * M226 - Wait until a pin is in a given state: "M226 P<pin> S<state>"
//  172  * M240 - Trigger a camera to take a photograph. (Requires CHDK or PHOTOGRAPH_PIN)
//  173  * M250 - Set LCD contrast: "M250 C<contrast>" (0-63). (Requires LCD support)
//  174  * M260 - i2c Send Data (Requires EXPERIMENTAL_I2CBUS)
//  175  * M261 - i2c Request Data (Requires EXPERIMENTAL_I2CBUS)
//  176  * M280 - Set servo position absolute: "M280 P<index> S<angle|µs>". (Requires servos)
//  177  * M290 - Babystepping (Requires BABYSTEPPING)
//  178  * M300 - Play beep sound S<frequency Hz> P<duration ms>
//  179  * M301 - Set PID parameters P I and D. (Requires PIDTEMP)
//  180  * M302 - Allow cold extrudes, or set the minimum extrude S<temperature>. (Requires PREVENT_COLD_EXTRUSION)
//  181  * M303 - PID relay autotune S<temperature> sets the target temperature. Default 150C. (Requires PIDTEMP)
//  182  * M304 - Set bed PID parameters P I and D. (Requires PIDTEMPBED)
//  183  * M350 - Set microstepping mode. (Requires digital microstepping pins.)
//  184  * M351 - Toggle MS1 MS2 pins directly. (Requires digital microstepping pins.)
//  185  * M355 - Set Case Light on/off and set brightness. (Requires CASE_LIGHT_PIN)
//  186  * M380 - Activate solenoid on active extruder. (Requires EXT_SOLENOID)
//  187  * M381 - Disable all solenoids. (Requires EXT_SOLENOID)
//  188  * M400 - Finish all moves.
//  189  * M401 - Lower Z probe. (Requires a probe)
//  190  * M402 - Raise Z probe. (Requires a probe)
//  191  * M404 - Display or set the Nominal Filament Width: "W<diameter>". (Requires FILAMENT_WIDTH_SENSOR)
//  192  * M405 - Enable Filament Sensor flow control. "M405 D<delay_cm>". (Requires FILAMENT_WIDTH_SENSOR)
//  193  * M406 - Disable Filament Sensor flow control. (Requires FILAMENT_WIDTH_SENSOR)
//  194  * M407 - Display measured filament diameter in millimeters. (Requires FILAMENT_WIDTH_SENSOR)
//  195  * M410 - Quickstop. Abort all planned moves.
//  196  * M420 - Enable/Disable Leveling (with current values) S1=enable S0=disable (Requires MESH_BED_LEVELING or ABL)
//  197  * M421 - Set a single Z coordinate in the Mesh Leveling grid. X<units> Y<units> Z<units> (Requires MESH_BED_LEVELING or AUTO_BED_LEVELING_UBL)
//  198  * M428 - Set the home_offset based on the current_position. Nearest edge applies. (Disabled by NO_WORKSPACE_OFFSETS or DELTA)
//  199  * M500 - Store parameters in EEPROM. (Requires EEPROM_SETTINGS)
//  200  * M501 - Restore parameters from EEPROM. (Requires EEPROM_SETTINGS)
//  201  * M502 - Revert to the default "factory settings". ** Does not write them to EEPROM! **
//  202  * M503 - Print the current settings (in memory): "M503 S<verbose>". S0 specifies compact output.
//  203  * M540 - Enable/disable SD card abort on endstop hit: "M540 S<state>". (Requires ABORT_ON_ENDSTOP_HIT_FEATURE_ENABLED)
//  204  * M600 - Pause for filament change: "M600 X<pos> Y<pos> Z<raise> E<first_retract> L<later_retract>". (Requires ADVANCED_PAUSE_FEATURE)
//  205  * M665 - Set delta configurations: "M665 L<diagonal rod> R<delta radius> S<segments/s> A<rod A trim mm> B<rod B trim mm> C<rod C trim mm> I<tower A trim angle> J<tower B trim angle> K<tower C trim angle>" (Requires DELTA)
//  206  * M666 - Set delta endstop adjustment. (Requires DELTA)
//  207  * M605 - Set dual x-carriage movement mode: "M605 S<mode> [X<x_offset>] [R<temp_offset>]". (Requires DUAL_X_CARRIAGE)
//  208  * M851 - Set Z probe's Z offset in current units. (Negative = below the nozzle.)
//  209  * M852 - Set skew factors: "M852 [I<xy>] [J<xz>] [K<yz>]". (Requires SKEW_CORRECTION_GCODE, and SKEW_CORRECTION_FOR_Z for IJ)
//  210  * M860 - Report the position of position encoder modules.
//  211  * M861 - Report the status of position encoder modules.
//  212  * M862 - Perform an axis continuity test for position encoder modules.
//  213  * M863 - Perform steps-per-mm calibration for position encoder modules.
//  214  * M864 - Change position encoder module I2C address.
//  215  * M865 - Check position encoder module firmware version.
//  216  * M866 - Report or reset position encoder module error count.
//  217  * M867 - Enable/disable or toggle error correction for position encoder modules.
//  218  * M868 - Report or set position encoder module error correction threshold.
//  219  * M869 - Report position encoder module error.
//  220  * M900 - Get and/or Set advance K factor and WH/D ratio. (Requires LIN_ADVANCE)
//  221  * M906 - Set or get motor current in milliamps using axis codes X, Y, Z, E. Report values if no axis codes given. (Requires HAVE_TMC2130 or HAVE_TMC2208)
//  222  * M907 - Set digital trimpot motor current using axis codes. (Requires a board with digital trimpots)
//  223  * M908 - Control digital trimpot directly. (Requires DAC_STEPPER_CURRENT or DIGIPOTSS_PIN)
//  224  * M909 - Print digipot/DAC current value. (Requires DAC_STEPPER_CURRENT)
//  225  * M910 - Commit digipot/DAC value to external EEPROM via I2C. (Requires DAC_STEPPER_CURRENT)
//  226  * M911 - Report stepper driver overtemperature pre-warn condition. (Requires HAVE_TMC2130 or HAVE_TMC2208)
//  227  * M912 - Clear stepper driver overtemperature pre-warn condition flag. (Requires HAVE_TMC2130 or HAVE_TMC2208)
//  228  * M913 - Set HYBRID_THRESHOLD speed. (Requires HYBRID_THRESHOLD)
//  229  * M914 - Set SENSORLESS_HOMING sensitivity. (Requires SENSORLESS_HOMING)
//  230  *
//  231  * M360 - SCARA calibration: Move to cal-position ThetaA (0 deg calibration)
//  232  * M361 - SCARA calibration: Move to cal-position ThetaB (90 deg calibration - steps per degree)
//  233  * M362 - SCARA calibration: Move to cal-position PsiA (0 deg calibration)
//  234  * M363 - SCARA calibration: Move to cal-position PsiB (90 deg calibration - steps per degree)
//  235  * M364 - SCARA calibration: Move to cal-position PSIC (90 deg to Theta calibration position)
//  236  *
//  237  * ************ Custom codes - This can change to suit future G-code regulations
//  238  * M928 - Start SD logging: "M928 filename.gco". Stop with M29. (Requires SDSUPPORT)
//  239  * M998	- Stop SD print. (Requires SDSUPPORT)
//  240  * M999 - Restart after being stopped by error
//  241  *
//  242  * "T" Codes
//  243  *
//  244  * T0-T3 - Select an extruder (tool) by index: "T<n> F<units/min>"
//  245  *
//  246  */
//  247 
//  248 #include "Marlin.h"
//  249 
//  250 #include "ultralcd.h"
//  251 #include "planner.h"
//  252 #include "stepper.h"
//  253 #include "endstops.h"
//  254 #include "temperature.h"
//  255 #include "cardreader.h"
//  256 #include "configuration_store.h"
//  257 #include "language.h"
//  258 //#include "pins_arduino.h"
//  259 #include "math.h"
//  260 #include "nozzle.h"
//  261 #include "duration_t.h"
//  262 //#include "types.h"
//  263 #include "tim.h"
//  264 #include "gcode.h"
//  265 
//  266 #include "least_squares_fit.h"
//  267 //#include "ubl.h"
//  268 
//  269 #include "mks_cfg.h"
//  270 #include "mks_reprint.h"
//  271 #include "mks_dlp_main.h"
//  272 #if 1
//  273 
//  274 #include "wifi_module.h"
//  275 
//  276 #include "gui.h"
//  277 
//  278 #include "draw_ready_print.h"
//  279 
//  280 #include "draw_ui.h"
//  281 #include "wifi_module.h"
//  282 #include "draw_printing.h"
//  283 
//  284 
//  285 volatile uint8_t temper_error_flg = 0;
//  286 
//  287 volatile uint8_t mks_heating_busy = 0;
//  288 
//  289 extern void PowerOff_Filament_Check();
//  290 extern void display_temper_error();
//  291 extern void Close_machine_display();
//  292 
//  293 extern uint8_t IsChooseAutoShutdown;
//  294 
//  295 extern uint8_t temperature_change_frequency;
//  296 extern uint8_t from_flash_pic;
//  297 
//  298 static uint32_t temperature_change_frequency_cnt = 0;
//  299 static uint32_t After_finish_print_time = 0;
//  300 
//  301 #if 0
//  302 uint8_t filament_loading_time_flg;
//  303 uint32_t filament_loading_time_cnt;
//  304 uint8_t filament_loading_completed;
//  305 uint8_t filament_unloading_time_flg;
//  306 uint32_t filament_unloading_time_cnt;
//  307 uint8_t filament_unloading_completed;
//  308 
//  309 uint8_t filament_heat_completed_load;
//  310 uint8_t filament_heat_completed_unload;
//  311 
//  312 extern uint32_t filament_rate;
//  313 #endif
//  314 
//  315 volatile uint32_t TimeIncrease;
//  316 uint8_t volatile printing_rate_update_flag;
//  317 uint8_t preview_no_display;
//  318 extern PRINT_TIME  print_time;
//  319 #endif
//  320 
//  321 
//  322 #if HAS_ABL
//  323   #include "vector_3.h"
//  324   #if ENABLED(AUTO_BED_LEVELING_LINEAR)
//  325     #include "least_squares_fit.h"
//  326   #endif
//  327 #elif ENABLED(MESH_BED_LEVELING)
//  328   #include "mesh_bed_leveling.h"
//  329 #endif
//  330 
//  331 #if ENABLED(BEZIER_CURVE_SUPPORT)
//  332   #include "planner_bezier.h"
//  333 #endif
//  334 
//  335 #if HAS_BUZZER && DISABLED(LCD_USE_I2C_BUZZER)
//  336   #include "buzzer.h"
//  337 #endif
//  338 
//  339 #if ENABLED(USE_WATCHDOG)
//  340   #include "watchdog.h"
//  341 #endif
//  342 
//  343 #if ENABLED(MAX7219_DEBUG)
//  344   #include "Max7219_Debug_LEDs.h"
//  345 #endif
//  346 
//  347 #if HAS_COLOR_LEDS
//  348   #include "leds.h"
//  349 #endif
//  350 
//  351 #if HAS_SERVOS
//  352   #include "servo.h"
//  353 #endif
//  354 
//  355 #if HAS_DIGIPOTSS
//  356   #include <SPI.h>
//  357 #endif
//  358 
//  359 #if ENABLED(DAC_STEPPER_CURRENT)
//  360   #include "stepper_dac.h"
//  361 #endif
//  362 
//  363 #if ENABLED(EXPERIMENTAL_I2CBUS)
//  364   #include "twibus.h"
//  365 #endif
//  366 
//  367 #if ENABLED(I2C_POSITION_ENCODERS)
//  368   #include "I2CPositionEncoder.h"
//  369 #endif
//  370 
//  371 #if ENABLED(ENDSTOP_INTERRUPTS_FEATURE)
//  372   #include "endstop_interrupts.h"
//  373 #endif
//  374 
//  375 #if ENABLED(M100_FREE_MEMORY_WATCHER)
//  376   void gcode_M100();
//  377   void M100_dump_routine(const char * const title, const char *start, const char *end);
//  378 #endif
//  379 
//  380 #if ENABLED(G26_MESH_VALIDATION)
//  381   bool g26_debug_flag; // =false
//  382   void gcode_G26();
//  383 #endif
//  384 
//  385 #if ENABLED(SDSUPPORT)

        SECTION `.text`:CODE:NOROOT(1)
          CFI Block cfiBlock1 Using cfiCommon0
          CFI Function __sti__routine
        THUMB
// static __intrinsic __interwork __softfp void __sti__routine()
__sti__routine:
        PUSH     {R4,LR}
          CFI R14 Frame(CFA, -4)
          CFI R4 Frame(CFA, -8)
          CFI CFA R13+8
//  386   CardReader card;
        LDR.W    R4,??DataTable104_6
        MOV      R0,R4
          CFI FunCall _ZN10CardReaderC1Ev
        BL       _ZN10CardReaderC1Ev
        ADD      R0,R4,#+3584
          CFI FunCall _ZN9StopwatchC1Ev
        BL       _ZN9StopwatchC1Ev
        LDR.W    R0,??DataTable104_7
        LDR.W    R1,??DataTable104_8
        LDR      R2,[R1, #+4]
        STR      R2,[R0, #+12]
        LDR      R2,[R1, #+8]
        STR      R2,[R0, #+24]
        LDRSB    R2,[R1, #+1]
        CMP      R2,#+0
        BPL.N    ??__sti__routine_0
        VLDR     S0,[R1, #+4]
        B.N      ??__sti__routine_1
??__sti__routine_0:
        VLDR     S0,[R1, #+8]
??__sti__routine_1:
        VSTR     S0,[R0, #+36]
        VLDR     S0,[R1, #+8]
        VLDR     S1,[R1, #+4]
        VSUB.F32 S0,S0,S1
        VSTR     S0,[R0, #+48]
        LDRB     R1,[R1, #+1]
        STRB     R1,[R0, #+2]
        ADDW     R0,R4,#+2500
        POP      {R4,LR}
          CFI R4 SameValue
          CFI R14 SameValue
          CFI CFA R13+0
          CFI FunCall _ZN7MKS_DLPC1Ev
        B.W      _ZN7MKS_DLPC1Ev
          CFI EndBlock cfiBlock1
//  387 #endif
//  388 
//  389 #if ENABLED(EXPERIMENTAL_I2CBUS)
//  390   TWIBus i2c;
//  391 #endif
//  392 
//  393 #if ENABLED(G38_PROBE_TARGET)
//  394   bool G38_move = false,
//  395        G38_endstop_hit = false;
//  396 #endif
//  397 
//  398 #if ENABLED(AUTO_BED_LEVELING_UBL)
//  399   #include "ubl.h"
//  400   extern bool defer_return_to_status;
//  401   unified_bed_leveling ubl;
//  402 #endif
//  403 
//  404 #if ENABLED(CNC_COORDINATE_SYSTEMS)
//  405   int8_t active_coordinate_system = -1; // machine space
//  406   float coordinate_system[MAX_COORDINATE_SYSTEMS][XYZ];
//  407 #endif
//  408 
//  409 bool Running = true;
//  410 
//  411 uint8_t marlin_debug_flags = DEBUG_NONE;
//  412 
//  413 /**
//  414  * Cartesian Current Position
//  415  *   Used to track the native machine position as moves are queued.
//  416  *   Used by 'buffer_line_to_current_position' to do a move after changing it.
//  417  *   Used by 'SYNC_PLAN_POSITION_KINEMATIC' to update 'planner.position'.
//  418  */
//  419 float current_position[XYZE] = { 0.0 };
//  420 
//  421 /**
//  422  * Cartesian Destination
//  423  *   The destination for a move, filled in by G-code movement commands,
//  424  *   and expected by functions like 'prepare_move_to_destination'.
//  425  *   Set with 'gcode_get_destination' or 'set_destination_from_current'.
//  426  */
//  427 float destination[XYZE] = { 0.0 };
//  428 
//  429 /**
//  430  * axis_homed
//  431  *   Flags that each linear axis was homed.
//  432  *   XYZ on cartesian, ABC on delta, ABZ on SCARA.
//  433  *
//  434  * axis_known_position
//  435  *   Flags that the position is known in each linear axis. Set when homed.
//  436  *   Cleared whenever a stepper powers off, potentially losing its position.
//  437  */
//  438 bool axis_homed[XYZ] = { false }, axis_known_position[XYZ] = { false };
//  439 
//  440 /**
//  441  * GCode line number handling. Hosts may opt to include line numbers when
//  442  * sending commands to Marlin, and lines will be checked for sequentiality.
//  443  * M110 N<int> sets the current line number.
//  444  */
//  445 static long gcode_N, gcode_LastN, Stopped_gcode_LastN = 0;
//  446 
//  447 /**
//  448  * GCode Command Queue
//  449  * A simple ring buffer of BUFSIZE command strings.
//  450  *
//  451  * Commands are copied into this buffer by the command injectors
//  452  * (immediate, serial, sd card) and they are processed sequentially by
//  453  * the main loop. The process_next_command function parses the next
//  454  * command and hands off execution to individual handler functions.
//  455  */
//  456 uint8_t commands_in_queue = 0; // Count of commands in the queue
//  457 static uint8_t cmd_queue_index_r = 0, // Ring buffer read position
//  458                cmd_queue_index_w = 0; // Ring buffer write position
//  459 #if ENABLED(M100_FREE_MEMORY_WATCHER)
//  460   char command_queue[BUFSIZE][MAX_CMD_SIZE];  // Necessary so M100 Free Memory Dumper can show us the commands and any corruption
//  461 #else                                         // This can be collapsed back to the way it was soon.
//  462 static char command_queue[BUFSIZE][MAX_CMD_SIZE];
//  463 #endif
//  464 
//  465 /**
//  466  * Next Injected Command pointer. NULL if no commands are being injected.
//  467  * Used by Marlin internally to ensure that commands initiated from within
//  468  * are enqueued ahead of any pending serial or sd card commands.
//  469  */
//  470 static const char *injected_commands_P = NULL;
//  471 
//  472 #if ENABLED(TEMPERATURE_UNITS_SUPPORT)
//  473   TempUnit input_temp_units = TEMPUNIT_C;
//  474 #endif
//  475 
//  476 /**
//  477  * Feed rates are often configured with mm/m
//  478  * but the planner and stepper like mm/s units.
//  479  */
//  480  /*
//  481 static const float homing_feedrate_mm_s[] PROGMEM = {
//  482   #if ENABLED(DELTA)
//  483     MMM_TO_MMS(HOMING_FEEDRATE_Z), MMM_TO_MMS(HOMING_FEEDRATE_Z),
//  484   #else
//  485     MMM_TO_MMS(HOMING_FEEDRATE_XY), MMM_TO_MMS(HOMING_FEEDRATE_XY),
//  486   #endif
//  487   MMM_TO_MMS(HOMING_FEEDRATE_Z), 0
//  488 };
//  489 
//  490 FORCE_INLINE float homing_feedrate(const AxisEnum a) { return pgm_read_float(&homing_feedrate_mm_s[a]); }
//  491 */
//  492 
//  493 float  homing_feedrate_mm_s[4];
//  494 
//  495 float feedrate_mm_s = MMM_TO_MMS(1500.0);
//  496 static float saved_feedrate_mm_s;
//  497 int16_t feedrate_percentage = 100, saved_feedrate_percentage;
//  498 
//  499 // Initialized by settings.load()
//  500 bool axis_relative_modes[] = AXIS_RELATIVE_MODES;
//  501 
//  502 #if HAS_WORKSPACE_OFFSET
//  503   #if HAS_POSITION_SHIFT
//  504     // The distance that XYZ has been offset by G92. Reset by G28.
//  505     float position_shift[XYZ] = { 0 };
//  506   #endif
//  507   #if HAS_HOME_OFFSET
//  508     // This offset is added to the configured home position.
//  509     // Set by M206, M428, or menu item. Saved to EEPROM.
//  510     float home_offset[XYZ] = { 0 };
//  511   #endif
//  512   #if HAS_HOME_OFFSET && HAS_POSITION_SHIFT
//  513     // The above two are combined to save on computes
//  514     float workspace_offset[XYZ] = { 0 };
//  515   #endif
//  516 #endif
//  517 
//  518 // Software Endstops are based on the configured limits.
//  519 /*
//  520 float soft_endstop_min[XYZ] = { X_MIN_BED, Y_MIN_BED, Z_MIN_POS },
//  521       soft_endstop_max[XYZ] = { X_MAX_BED, Y_MAX_BED, Z_MAX_POS };
//  522 */
//  523 float soft_endstop_min[XYZ],soft_endstop_max[XYZ];

        SECTION `.text`:CODE:NOROOT(2)
          CFI Block cfiBlock2 Using cfiCommon0
          CFI Function _Z21soft_endstop_min_initv
          CFI NoCalls
        THUMB
//  524 void soft_endstop_min_init()
//  525 {
//  526         soft_endstop_min[0]= X_MIN_BED;
_Z21soft_endstop_min_initv:
        LDR.W    R0,??DataTable104_9
        MOVS     R1,#+0
        STR      R1,[R0, #+16]
//  527         soft_endstop_min[1]= X_MIN_BED;
        STR      R1,[R0, #+20]
//  528         soft_endstop_min[2]= Z_MIN_POS;
        LDR.W    R1,??DataTable104_8
        LDR      R2,[R1, #+4]
        STR      R2,[R0, #+24]
//  529 
//  530         soft_endstop_max[0] = X_MAX_BED;
        VLDR.W   S0,??DataTable88  ;; 0x43480000
        VSTR     S0,[R0, #+28]
//  531         soft_endstop_max[1] = Y_MAX_BED;
        VSTR     S0,[R0, #+32]
//  532         soft_endstop_max[2] = Z_MAX_POS;
        LDR      R1,[R1, #+8]
        STR      R1,[R0, #+36]
//  533 }
        BX       LR               ;; return
          CFI EndBlock cfiBlock2
//  534 
//  535 #if HAS_SOFTWARE_ENDSTOPS
//  536   bool soft_endstops_enabled = true;
//  537   #if IS_KINEMATIC
//  538     float soft_endstop_radius, soft_endstop_radius_2;
//  539   #endif
//  540 #endif
//  541 
//  542 #if FAN_COUNT > 0
//  543   int fanSpeeds[FAN_COUNT] = { 0 };
//  544   #if ENABLED(EXTRA_FAN_SPEED)
//  545     int16_t old_fanSpeeds[FAN_COUNT],
//  546             new_fanSpeeds[FAN_COUNT];
//  547   #endif
//  548   #if ENABLED(PROBING_FANS_OFF)
//  549     bool fans_paused = false;
//  550     int16_t paused_fanSpeeds[FAN_COUNT] = { 0 };
//  551   #endif
//  552 #endif
//  553 
//  554 // The active extruder (tool). Set with T<extruder> command.
//  555 uint8_t active_extruder = 0;
//  556 
//  557 // Relative Mode. Enable with G91, disable with G90.
//  558 static bool relative_mode = false;
//  559 
//  560 // For M109 and M190, this flag may be cleared (by M108) to exit the wait loop
//  561 volatile bool wait_for_heatup = true;
//  562 
//  563 // For M0/M1, this flag may be cleared (by M108) to exit the wait-for-user loop
//  564 #if HAS_RESUME_CONTINUE
//  565   volatile bool wait_for_user = false;
//  566 #endif
//  567 
//  568 const char axis_codes[XYZE] = { 'X', 'Y', 'Z', 'E' };
//  569 
//  570 // Number of characters read in the current line of serial input
//  571 static int serial_count = 0;
//  572 static int wifi_read_count = 0;
//  573 
//  574 // Inactivity shutdown
//  575 millis_t previous_cmd_ms = 0;
//  576 static millis_t max_inactive_time = 0;
//  577 static millis_t stepper_inactive_time = (DEFAULT_STEPPER_DEACTIVE_TIME) * 1000UL;
//  578 
//  579 // Print Job Timer
//  580 #if ENABLED(PRINTCOUNTER)
//  581   PrintCounter print_job_timer = PrintCounter();
//  582 #else
//  583   Stopwatch print_job_timer = Stopwatch();
//  584 #endif
//  585 
//  586 // Buzzer - I2C on the LCD or a BEEPER_PIN
//  587 #if ENABLED(LCD_USE_I2C_BUZZER)
//  588   #define BUZZ(d,f) lcd_buzz(d, f)
//  589 #elif PIN_EXISTS(BEEPER)
//  590   Buzzer buzzer;
//  591   #define BUZZ(d,f) buzzer.tone(d, f)
//  592 #else
//  593   #define BUZZ(d,f) NOOP
//  594 #endif
//  595 
//  596 uint8_t target_extruder;
//  597 
//  598 #if HAS_BED_PROBE
//  599   float zprobe_zoffset; // Initialized by settings.load()
//  600 #endif
//  601 
//  602 #if HAS_ABL
//  603   float xy_probe_feedrate_mm_s = MMM_TO_MMS(XY_PROBE_SPEED);
//  604   #define XY_PROBE_FEEDRATE_MM_S xy_probe_feedrate_mm_s
//  605 #elif defined(XY_PROBE_SPEED)
//  606   #define XY_PROBE_FEEDRATE_MM_S MMM_TO_MMS(XY_PROBE_SPEED)
//  607 #else
//  608   #define XY_PROBE_FEEDRATE_MM_S PLANNER_XY_FEEDRATE()
//  609 #endif
//  610 
//  611 #if ENABLED(AUTO_BED_LEVELING_BILINEAR)
//  612   #if ENABLED(DELTA)
//  613     #define ADJUST_DELTA(V) \ 
//  614       if (planner.leveling_active) { \ 
//  615         const float zadj = bilinear_z_offset(V); \ 
//  616         delta[A_AXIS] += zadj; \ 
//  617         delta[B_AXIS] += zadj; \ 
//  618         delta[C_AXIS] += zadj; \ 
//  619       }
//  620   #else
//  621     #define ADJUST_DELTA(V) if (planner.leveling_active) { delta[Z_AXIS] += bilinear_z_offset(V); }
//  622   #endif
//  623 #elif IS_KINEMATIC
//  624   #define ADJUST_DELTA(V) NOOP
//  625 #endif
//  626 
//  627 #if ENABLED(X_DUAL_ENDSTOPS)
//  628   float x_endstop_adj;                // Initialized by settings.load()
//  629 #endif
//  630 #if ENABLED(Y_DUAL_ENDSTOPS)
//  631   float y_endstop_adj;                // Initialized by settings.load()
//  632 #endif
//  633 #if ENABLED(Z_DUAL_ENDSTOPS)
//  634   float z_endstop_adj;                // Initialized by settings.load()
//  635 #endif
//  636 
//  637 // Extruder offsets
//  638 #if HOTENDS > 1
//  639   float hotend_offset[XYZ][HOTENDS];  // Initialized by settings.load()
//  640 #endif
//  641 
//  642 #if HAS_Z_SERVO_ENDSTOP
//  643   const int z_servo_angle[2] = Z_SERVO_ANGLES;
//  644 #endif
//  645 
//  646 #if ENABLED(BARICUDA)
//  647   uint8_t baricuda_valve_pressure = 0,
//  648           baricuda_e_to_p_pressure = 0;
//  649 #endif
//  650 
//  651 #if ENABLED(FWRETRACT)                      // Initialized by settings.load()...
//  652   bool autoretract_enabled,                 // M209 S - Autoretract switch
//  653        retracted[EXTRUDERS] = { false };    // Which extruders are currently retracted
//  654   float retract_length,                     // M207 S - G10 Retract length
//  655         retract_feedrate_mm_s,              // M207 F - G10 Retract feedrate
//  656         retract_zlift,                      // M207 Z - G10 Retract hop size
//  657         retract_recover_length,             // M208 S - G11 Recover length
//  658         retract_recover_feedrate_mm_s,      // M208 F - G11 Recover feedrate
//  659         swap_retract_length,                // M207 W - G10 Swap Retract length
//  660         swap_retract_recover_length,        // M208 W - G11 Swap Recover length
//  661         swap_retract_recover_feedrate_mm_s; // M208 R - G11 Swap Recover feedrate
//  662   #if EXTRUDERS > 1
//  663     bool retracted_swap[EXTRUDERS] = { false }; // Which extruders are swap-retracted
//  664   #else
//  665     constexpr bool retracted_swap[1] = { false };
//  666   #endif
//  667 #endif // FWRETRACT
//  668 
//  669 #if HAS_POWER_SWITCH
//  670   bool powersupply_on =
//  671     #if ENABLED(PS_DEFAULT_OFF)
//  672       false
//  673     #else
//  674       true
//  675     #endif
//  676   ;
//  677 #endif
//  678 
//  679 #if ENABLED(DELTA)
//  680 
//  681   float delta[ABC];
//  682 
//  683   // Initialized by settings.load()
//  684   float delta_height,
//  685         delta_endstop_adj[ABC] = { 0 },
//  686         delta_radius,
//  687         delta_tower_angle_trim[ABC],
//  688         delta_tower[ABC][2],
//  689         delta_diagonal_rod,
//  690         delta_calibration_radius,
//  691         delta_diagonal_rod_2_tower[ABC],
//  692         delta_segments_per_second,
//  693         delta_clip_start_height = Z_MAX_POS;
//  694 
//  695   float delta_safe_distance_from_top();
//  696 
//  697 #endif
//  698 
//  699 #if ENABLED(AUTO_BED_LEVELING_BILINEAR)
//  700   int bilinear_grid_spacing[2], bilinear_start[2];
//  701   float bilinear_grid_factor[2],
//  702         z_values[GRID_MAX_POINTS_X][GRID_MAX_POINTS_Y];
//  703 #endif
//  704 
//  705 #if IS_SCARA
//  706   // Float constants for SCARA calculations
//  707   const float L1 = SCARA_LINKAGE_1, L2 = SCARA_LINKAGE_2,
//  708               L1_2 = sq(float(L1)), L1_2_2 = 2.0 * L1_2,
//  709               L2_2 = sq(float(L2));
//  710 
//  711   float delta_segments_per_second = SCARA_SEGMENTS_PER_SECOND,
//  712         delta[ABC];
//  713 #endif
//  714 
//  715 float cartes[XYZ] = { 0 };
//  716 
//  717 #if ENABLED(FILAMENT_WIDTH_SENSOR)
//  718   bool filament_sensor = false;                                 // M405 turns on filament sensor control. M406 turns it off.
//  719   float filament_width_nominal = DEFAULT_NOMINAL_FILAMENT_DIA,  // Nominal filament width. Change with M404.
//  720         filament_width_meas = DEFAULT_MEASURED_FILAMENT_DIA;    // Measured filament diameter
//  721   uint8_t meas_delay_cm = MEASUREMENT_DELAY_CM;                 // Distance delay setting
//  722   int8_t measurement_delay[MAX_MEASUREMENT_DELAY + 1],          // Ring buffer to delayed measurement. Store extruder factor after subtracting 100
//  723          filwidth_delay_index[2] = { 0, -1 };                   // Indexes into ring buffer
//  724 #endif
//  725 
//  726 #if ENABLED(FILAMENT_RUNOUT_SENSOR)
//  727   static bool filament_ran_out = false;
//  728 #endif
//  729 
//  730 #if ENABLED(ADVANCED_PAUSE_FEATURE)
//  731   AdvancedPauseMenuResponse advanced_pause_menu_response;
//  732 #endif
//  733 
//  734 #if ENABLED(MIXING_EXTRUDER)
//  735   float mixing_factor[MIXING_STEPPERS]; // Reciprocal of mix proportion. 0.0 = off, otherwise >= 1.0.
//  736   #if MIXING_VIRTUAL_TOOLS > 1
//  737     float mixing_virtual_tool_mix[MIXING_VIRTUAL_TOOLS][MIXING_STEPPERS];
//  738   #endif
//  739 #endif
//  740 
//  741 static bool send_ok[BUFSIZE];
//  742 
//  743 #if HAS_SERVOS
//  744   Servo servo[NUM_SERVOS];
//  745   #define MOVE_SERVO(I, P) servo[I].move(P)
//  746   #if HAS_Z_SERVO_ENDSTOP
//  747     #define DEPLOY_Z_SERVO() MOVE_SERVO(Z_ENDSTOP_SERVO_NR, z_servo_angle[0])
//  748     #define STOW_Z_SERVO() MOVE_SERVO(Z_ENDSTOP_SERVO_NR, z_servo_angle[1])
//  749   #endif
//  750 #endif
//  751 
//  752 #ifdef CHDK
//  753   millis_t chdkHigh = 0;
//  754   bool chdkActive = false;
//  755 #endif
//  756 
//  757 #if ENABLED(PID_EXTRUSION_SCALING)
//  758   int lpq_len = 20;
//  759 #endif
//  760 
//  761 #if ENABLED(HOST_KEEPALIVE_FEATURE)
//  762   MarlinBusyState busy_state = NOT_BUSY;
//  763   static millis_t next_busy_signal_ms = 0;
//  764   uint8_t host_keepalive_interval = DEFAULT_KEEPALIVE_INTERVAL;
//  765 #else
//  766   #define host_keepalive() NOOP
//  767 #endif
//  768 
//  769 #if ENABLED(I2C_POSITION_ENCODERS)
//  770   I2CPositionEncodersMgr I2CPEM;
//  771   uint8_t blockBufferIndexRef = 0;
//  772   millis_t lastUpdateMillis;
//  773 #endif
//  774 
//  775 #if ENABLED(CNC_WORKSPACE_PLANES)
//  776   static WorkspacePlane workspace_plane = PLANE_XY;
//  777 #endif
//  778 
//  779 //FORCE_INLINE float pgm_read_any(const float *p) { return pgm_read_float_near(p); }
//  780 //FORCE_INLINE signed char pgm_read_any(const signed char *p) { return pgm_read_byte_near(p); }
//  781 static inline float pgm_read_any(const float *p) { return (*(const float *)(p)); }
//  782 static inline signed char pgm_read_any(const signed char *p) { return (*(const signed char *)(p)); }
//  783 /*P
//  784 #define XYZ_CONSTS_FROM_CONFIG(type, array, CONFIG) \ 
//  785   static const PROGMEM type array##_P[XYZ] = { X_##CONFIG, Y_##CONFIG, Z_##CONFIG }; \ 
//  786   static inline type array(const AxisEnum axis) { return pgm_read_any(&array##_P[axis]); } \ 
//  787   typedef void __void_##CONFIG##__
//  788 */
//  789 #define XYZ_CONSTS_FROM_CONFIG(type, array, CONFIG) \ 
//  790 	  type array##_P[XYZ] = { X_##CONFIG, Y_##CONFIG, Z_##CONFIG }; \ 
//  791 	  static inline type array(AxisEnum axis) { return (array##_P[axis]); } 
//  792 

        SECTION `.text`:CODE:NOROOT(1)
          CFI Block cfiBlock3 Using cfiCommon0
          CFI Function _Z12base_min_pos8AxisEnum
          CFI NoCalls
        THUMB
//  793 XYZ_CONSTS_FROM_CONFIG(float, base_min_pos,   MIN_POS);
_Z12base_min_pos8AxisEnum:
        LDR.W    R1,??DataTable104_7
        ADD      R0,R1,R0, LSL #+2
        VLDR     S0,[R0, #+4]
        BX       LR               ;; return
          CFI EndBlock cfiBlock3

        SECTION `.text`:CODE:NOROOT(1)
          CFI Block cfiBlock4 Using cfiCommon0
          CFI Function _Z12base_max_pos8AxisEnum
          CFI NoCalls
        THUMB
//  794 XYZ_CONSTS_FROM_CONFIG(float, base_max_pos,   MAX_POS);
_Z12base_max_pos8AxisEnum:
        LDR.W    R1,??DataTable104_7
        ADD      R0,R1,R0, LSL #+2
        VLDR     S0,[R0, #+16]
        BX       LR               ;; return
          CFI EndBlock cfiBlock4

        SECTION `.text`:CODE:NOROOT(1)
          CFI Block cfiBlock5 Using cfiCommon0
          CFI Function _Z13base_home_pos8AxisEnum
          CFI NoCalls
        THUMB
//  795 XYZ_CONSTS_FROM_CONFIG(float, base_home_pos,  HOME_POS);
_Z13base_home_pos8AxisEnum:
        LDR.W    R1,??DataTable104_7
        ADD      R0,R1,R0, LSL #+2
        VLDR     S0,[R0, #+28]
        BX       LR               ;; return
          CFI EndBlock cfiBlock5

        SECTION `.text`:CODE:NOROOT(1)
          CFI Block cfiBlock6 Using cfiCommon0
          CFI Function _Z10max_length8AxisEnum
          CFI NoCalls
        THUMB
//  796 XYZ_CONSTS_FROM_CONFIG(float, max_length,     MAX_LENGTH);
_Z10max_length8AxisEnum:
        LDR.W    R1,??DataTable104_7
        ADD      R0,R1,R0, LSL #+2
        VLDR     S0,[R0, #+40]
        BX       LR               ;; return
          CFI EndBlock cfiBlock6

        SECTION `.text`:CODE:NOROOT(1)
          CFI Block cfiBlock7 Using cfiCommon0
          CFI Function _Z12home_bump_mm8AxisEnum
          CFI NoCalls
        THUMB
//  797 XYZ_CONSTS_FROM_CONFIG(float, home_bump_mm,   HOME_BUMP_MM);
_Z12home_bump_mm8AxisEnum:
        LDR.W    R1,??DataTable107
        ADD      R0,R1,R0, LSL #+2
        VLDR     S0,[R0, #+96]
        BX       LR               ;; return
          CFI EndBlock cfiBlock7

        SECTION `.text`:CODE:NOROOT(1)
          CFI Block cfiBlock8 Using cfiCommon0
          CFI Function _Z8home_dir8AxisEnum
          CFI NoCalls
        THUMB
//  798 XYZ_CONSTS_FROM_CONFIG(signed char, home_dir, HOME_DIR);
_Z8home_dir8AxisEnum:
        LDR.W    R1,??DataTable104_7
        LDRSB    R0,[R0, R1]
        BX       LR               ;; return
          CFI EndBlock cfiBlock8
//  799 
//  800 /**
//  801  * ***************************************************************************
//  802  * ******************************** FUNCTIONS ********************************
//  803  * ***************************************************************************
//  804  */
//  805 
//  806 void stop();
//  807 
//  808 void get_available_commands();
//  809 void process_next_command();
//  810 void process_parsed_command();
//  811 
//  812 void get_cartesian_from_steppers();
//  813 void set_current_from_steppers_for_axis(const AxisEnum axis);
//  814 
//  815 #if ENABLED(ARC_SUPPORT)
//  816   void plan_arc(const float (&cart)[XYZE], const float (&offset)[2], const bool clockwise);
//  817 #endif
//  818 
//  819 #if ENABLED(BEZIER_CURVE_SUPPORT)
//  820   void plan_cubic_move(const float (&offset)[4]);
//  821 #endif
//  822 
//  823 void tool_change(const uint8_t tmp_extruder, const float fr_mm_s=0.0, bool no_move=false);
//  824 void report_current_position();
//  825 void report_current_position_detail();
//  826 
//  827 #if ENABLED(DEBUG_LEVELING_FEATURE)
//  828   void print_xyz(const char* prefix, const char* suffix, const float x, const float y, const float z) {
//  829     serialprintPGM(prefix);
//  830     SERIAL_CHAR('(');
//  831     SERIAL_ECHO(x);
//  832     SERIAL_ECHOPAIR(", ", y);
//  833     SERIAL_ECHOPAIR(", ", z);
//  834     SERIAL_CHAR(')');
//  835     if (suffix) serialprintPGM(suffix); else SERIAL_EOL();
//  836   }
//  837 
//  838   void print_xyz(const char* prefix, const char* suffix, const float xyz[]) {
//  839     print_xyz(prefix, suffix, xyz[X_AXIS], xyz[Y_AXIS], xyz[Z_AXIS]);
//  840   }
//  841 
//  842   #if HAS_ABL
//  843     void print_xyz(const char* prefix, const char* suffix, const vector_3 &xyz) {
//  844       print_xyz(prefix, suffix, xyz.x, xyz.y, xyz.z);
//  845     }
//  846   #endif
//  847 
//  848   #define DEBUG_POS(SUFFIX,VAR) do { \ 
//  849     print_xyz(PSTR("  " STRINGIFY(VAR) "="), PSTR(" : " SUFFIX "\n"), VAR); }while(0)
//  850 #endif
//  851 
//  852 /**
//  853  * sync_plan_position
//  854  *
//  855  * Set the planner/stepper positions directly from current_position with
//  856  * no kinematic translation. Used for homing axes and cartesian/core syncing.
//  857  */

        SECTION `.text`:CODE:NOROOT(1)
          CFI Block cfiBlock9 Using cfiCommon0
          CFI Function _Z18sync_plan_positionv
        THUMB
//  858 void sync_plan_position() {
//  859   #if ENABLED(DEBUG_LEVELING_FEATURE)
//  860     if (DEBUGGING(LEVELING)) DEBUG_POS("sync_plan_position", current_position);
//  861   #endif
//  862   planner.set_position_mm(current_position[X_AXIS], current_position[Y_AXIS], current_position[Z_AXIS], current_position[E_AXIS]);
_Z18sync_plan_positionv:
        LDR.W    R1,??DataTable107
        ADD      R0,R1,#+48
        VLDR     S2,[R1, #+44]
        VLDR     S1,[R1, #+40]
        VLDR     S0,[R1, #+36]
          CFI FunCall _ZN7Planner15set_position_mmEfffRKf
        B.W      _ZN7Planner15set_position_mmEfffRKf
          CFI EndBlock cfiBlock9
//  863 }
//  864 inline void sync_plan_position_e() { planner.set_e_position_mm(current_position[E_AXIS]); }
//  865 
//  866 #if IS_KINEMATIC
//  867 
//  868   inline void sync_plan_position_kinematic() {
//  869     #if ENABLED(DEBUG_LEVELING_FEATURE)
//  870       if (DEBUGGING(LEVELING)) DEBUG_POS("sync_plan_position_kinematic", current_position);
//  871     #endif
//  872     planner.set_position_mm_kinematic(current_position);
//  873   }
//  874   #define SYNC_PLAN_POSITION_KINEMATIC() sync_plan_position_kinematic()
//  875 
//  876 #else
//  877 
//  878   #define SYNC_PLAN_POSITION_KINEMATIC() sync_plan_position()
//  879 
//  880 #endif
//  881 
//  882 #if 0//ENABLED(SDSUPPORT)
//  883   #include "SdFatUtil.h"
//  884   int freeMemory() { return SdFatUtil::FreeRam(); }
//  885 #else
//  886 /*
//  887 extern "C" {
//  888   extern char __bss_end;
//  889   extern char __heap_start;
//  890   extern void* __brkval;
//  891 
//  892   int freeMemory() {
//  893     int free_memory;
//  894     if ((int)__brkval == 0)
//  895       free_memory = ((int)&free_memory) - ((int)&__bss_end);
//  896     else
//  897       free_memory = ((int)&free_memory) - ((int)__brkval);
//  898     return free_memory;
//  899   }
//  900 }
//  901 */

        SECTION `.text`:CODE:NOROOT(1)
          CFI Block cfiBlock10 Using cfiCommon0
          CFI Function _Z10freeMemoryv
          CFI NoCalls
        THUMB
//  902 	int freeMemory() { return 4396; }	//No free ram management
_Z10freeMemoryv:
        MOVW     R0,#+4396
        BX       LR               ;; return
          CFI EndBlock cfiBlock10
//  903 
//  904 #endif // !SDSUPPORT
//  905 
//  906 #if ENABLED(DIGIPOT_I2C)
//  907   extern void digipot_i2c_set_current(uint8_t channel, float current);
//  908   extern void digipot_i2c_init();
//  909 #endif
//  910 
//  911 /**
//  912  * Inject the next "immediate" command, when possible, onto the front of the queue.
//  913  * Return true if any immediate commands remain to inject.
//  914  */

        SECTION `.text`:CODE:NOROOT(1)
          CFI Block cfiBlock11 Using cfiCommon0
          CFI Function _Z25drain_injected_commands_Pv
        THUMB
//  915 static bool drain_injected_commands_P() {
_Z25drain_injected_commands_Pv:
        PUSH     {R4-R6,LR}
          CFI R14 Frame(CFA, -4)
          CFI R6 Frame(CFA, -8)
          CFI R5 Frame(CFA, -12)
          CFI R4 Frame(CFA, -16)
          CFI CFA R13+16
        SUB      SP,SP,#+32
          CFI CFA R13+48
//  916   if (injected_commands_P != NULL) {
        LDR.W    R4,??DataTable107_1
        LDR      R1,[R4, #+0]
        CMP      R1,#+0
        BEQ.N    ??drain_injected_commands_P_0
//  917     size_t i = 0;
        MOVS     R5,#+0
//  918     char c, cmd[30];
//  919     //strncpy_P(cmd, injected_commands_P, sizeof(cmd) - 1);
//  920     strncpy(cmd, injected_commands_P, sizeof(cmd) - 1);	/*--mks--*/
        MOVS     R2,#+29
        ADD      R0,SP,#+0
          CFI FunCall strncpy
        BL       strncpy
//  921     cmd[sizeof(cmd) - 1] = '\0';
        ADD      R0,SP,#+0
        MOV      R1,R5
        STRB     R1,[R0, #+29]
        B.N      ??drain_injected_commands_P_1
//  922     while ((c = cmd[i]) && c != '\n') i++; // find the end of this gcode command
??drain_injected_commands_P_2:
        ADDS     R5,R5,#+1
??drain_injected_commands_P_1:
        LDRSB    R6,[R5, R0]
        CMP      R6,#+0
        BEQ.N    ??drain_injected_commands_P_3
        CMP      R6,#+10
        BNE.N    ??drain_injected_commands_P_2
//  923     cmd[i] = '\0';
??drain_injected_commands_P_3:
        STRB     R1,[R5, R0]
//  924     if (enqueue_and_echo_command(cmd))     // success?
          CFI FunCall _Z24enqueue_and_echo_commandPKcb
        BL       _Z24enqueue_and_echo_commandPKcb
        CMP      R0,#+0
        BEQ.N    ??drain_injected_commands_P_0
//  925       injected_commands_P = c ? injected_commands_P + i + 1 : NULL; // next command or done
        CMP      R6,#+0
        BEQ.N    ??drain_injected_commands_P_4
        LDR      R0,[R4, #+0]
        ADDS     R0,R5,R0
        ADDS     R0,R0,#+1
        STR      R0,[R4, #+0]
        B.N      ??drain_injected_commands_P_0
??drain_injected_commands_P_4:
        MOVS     R0,#+0
        STR      R0,[R4, #+0]
//  926   }
//  927   return (injected_commands_P != NULL);    // return whether any more remain
??drain_injected_commands_P_0:
        LDR      R0,[R4, #+0]
        CMP      R0,#+0
        BEQ.N    ??drain_injected_commands_P_5
        MOVS     R0,#+1
        B.N      ??drain_injected_commands_P_6
??drain_injected_commands_P_5:
        MOVS     R0,#+0
??drain_injected_commands_P_6:
        ADD      SP,SP,#+32
          CFI CFA R13+16
        POP      {R4-R6,PC}       ;; return
          CFI EndBlock cfiBlock11
//  928 }
//  929 
//  930 /**
//  931  * Record one or many commands to run from program memory.
//  932  * Aborts the current queue, if any.
//  933  * Note: drain_injected_commands_P() must be called repeatedly to drain the commands afterwards
//  934  */

        SECTION `.text`:CODE:NOROOT(1)
          CFI Block cfiBlock12 Using cfiCommon0
          CFI Function _Z27enqueue_and_echo_commands_PPKc
        THUMB
//  935 void enqueue_and_echo_commands_P(const char * const pgcode) {
//  936   injected_commands_P = pgcode;
_Z27enqueue_and_echo_commands_PPKc:
        LDR.W    R1,??DataTable107_1
        STR      R0,[R1, #+0]
//  937   drain_injected_commands_P(); // first command executed asap (when possible)
          CFI FunCall _Z25drain_injected_commands_Pv
        B.N      _Z25drain_injected_commands_Pv
          CFI EndBlock cfiBlock12
//  938 }
//  939 
//  940 /**
//  941  * Clear the Marlin command queue
//  942  */

        SECTION `.text`:CODE:NOROOT(1)
          CFI Block cfiBlock13 Using cfiCommon0
          CFI Function _Z19clear_command_queuev
          CFI NoCalls
        THUMB
//  943 void clear_command_queue() {
//  944   cmd_queue_index_r = cmd_queue_index_w;
_Z19clear_command_queuev:
        LDR.W    R0,??DataTable107
        LDRB     R1,[R0, #+18]
        STRB     R1,[R0, #+17]
//  945   commands_in_queue = 0;
        MOVS     R1,#+0
        STRB     R1,[R0, #+16]
//  946 }
        BX       LR               ;; return
          CFI EndBlock cfiBlock13
//  947 
//  948 /**
//  949  * Once a new command is in the ring buffer, call this to commit it
//  950  */
//  951 inline void _commit_command(bool say_ok) {
//  952   send_ok[cmd_queue_index_w] = say_ok;
//  953   if (++cmd_queue_index_w >= BUFSIZE) cmd_queue_index_w = 0;
//  954   commands_in_queue++;
//  955 }
//  956 
//  957 /**
//  958  * Copy a command from RAM into the main command buffer.
//  959  * Return true if the command was successfully added.
//  960  * Return false for a full buffer, or if the 'command' is a comment.
//  961  */
//  962 inline bool _enqueuecommand(const char* cmd, bool say_ok=false) {
//  963   if (*cmd == ';' || commands_in_queue >= BUFSIZE) return false;
//  964   strcpy(command_queue[cmd_queue_index_w], cmd);
//  965   _commit_command(say_ok);
//  966   return true;
//  967 }
//  968 
//  969 /**
//  970  * Enqueue with Serial Echo
//  971  */

        SECTION `.text`:CODE:NOROOT(1)
          CFI Block cfiBlock14 Using cfiCommon0
          CFI Function _Z24enqueue_and_echo_commandPKcb
        THUMB
//  972 bool enqueue_and_echo_command(const char* cmd, bool say_ok/*=false*/) {
_Z24enqueue_and_echo_commandPKcb:
        PUSH     {R4,LR}
          CFI R14 Frame(CFA, -4)
          CFI R4 Frame(CFA, -8)
          CFI CFA R13+8
        MOV      R4,R0
//  973   if (_enqueuecommand(cmd, say_ok)) {
          CFI FunCall _Z15_enqueuecommandPKcb
        BL       _Z15_enqueuecommandPKcb
        CMP      R0,#+0
        BEQ.N    ??enqueue_and_echo_command_0
//  974     SERIAL_ECHO_START();
        LDR.W    R0,??DataTable107_2
          CFI FunCall _Z14serialprintPGMPKc
        BL       _Z14serialprintPGMPKc
//  975     SERIAL_ECHOPAIR(MSG_ENQUEUEING, cmd);
        MOV      R1,R4
        ADR.W    R0,`?<Constant "enqueueing \\"">`
          CFI FunCall _Z17serial_echopair_PPKcS0_
        BL       _Z17serial_echopair_PPKcS0_
//  976     SERIAL_CHAR('"');
        LDR.W    R4,??DataTable109
        MOVS     R1,#+34
        MOV      R0,R4
          CFI FunCall _ZN10USARTClass5writeEh
        BL       _ZN10USARTClass5writeEh
//  977     SERIAL_EOL();
        MOVS     R1,#+10
        MOV      R0,R4
          CFI FunCall _ZN10USARTClass5writeEh
        BL       _ZN10USARTClass5writeEh
//  978     return true;
        MOVS     R0,#+1
        POP      {R4,PC}
//  979   }
//  980   return false;
??enqueue_and_echo_command_0:
        MOVS     R0,#+0
        POP      {R4,PC}          ;; return
          CFI EndBlock cfiBlock14
//  981 }

        SECTION `.text`:CODE:NOROOT(2)
        SECTION_TYPE SHT_PROGBITS, 0
        DATA
`?<Constant "enqueueing \\"">`:
        DC8 "enqueueing \""
        DC8 0, 0, 0
//  982 

        SECTION `.text`:CODE:NOROOT(1)
          CFI Block cfiBlock15 Using cfiCommon0
          CFI Function _Z13setup_killpinv
          CFI NoCalls
        THUMB
//  983 void setup_killpin() {
//  984   #if HAS_KILL
//  985     SET_INPUT_PULLUP(KILL_PIN);
//  986   #endif
//  987 }
_Z13setup_killpinv:
        BX       LR               ;; return
          CFI EndBlock cfiBlock15
//  988 
//  989 #if ENABLED(FILAMENT_RUNOUT_SENSOR)
//  990 
//  991   void setup_filrunoutpin() {
//  992     #if ENABLED(ENDSTOPPULLUP_FIL_RUNOUT)
//  993       SET_INPUT_PULLUP(FIL_RUNOUT_PIN);
//  994     #else
//  995       SET_INPUT(FIL_RUNOUT_PIN);
//  996     #endif
//  997   }
//  998 
//  999 #endif
// 1000 

        SECTION `.text`:CODE:NOROOT(1)
          CFI Block cfiBlock16 Using cfiCommon0
          CFI Function _Z15setup_powerholdv
          CFI NoCalls
        THUMB
// 1001 void setup_powerhold() {
// 1002   #if HAS_SUICIDE
// 1003     OUT_WRITE(SUICIDE_PIN, HIGH);
// 1004   #endif
// 1005   #if HAS_POWER_SWITCH
// 1006     #if ENABLED(PS_DEFAULT_OFF)
// 1007       OUT_WRITE(PS_ON_PIN, PS_ON_ASLEEP);
// 1008     #else
// 1009       OUT_WRITE(PS_ON_PIN, PS_ON_AWAKE);
// 1010     #endif
// 1011   #endif
// 1012 }
_Z15setup_powerholdv:
        BX       LR               ;; return
          CFI EndBlock cfiBlock16
// 1013 

        SECTION `.text`:CODE:NOROOT(1)
          CFI Block cfiBlock17 Using cfiCommon0
          CFI Function _Z7suicidev
          CFI NoCalls
        THUMB
// 1014 void suicide() {
// 1015   #if HAS_SUICIDE
// 1016     OUT_WRITE(SUICIDE_PIN, LOW);
// 1017   #endif
// 1018 }
_Z7suicidev:
        BX       LR               ;; return
          CFI EndBlock cfiBlock17
// 1019 

        SECTION `.text`:CODE:NOROOT(1)
          CFI Block cfiBlock18 Using cfiCommon0
          CFI Function _Z10servo_initv
          CFI NoCalls
        THUMB
// 1020 void servo_init() {
// 1021   #if NUM_SERVOS >= 1 && HAS_SERVO_0
// 1022     servo[0].attach(SERVO0_PIN);
// 1023     servo[0].detach(); // Just set up the pin. We don't have a position yet. Don't move to a random position.
// 1024   #endif
// 1025   #if NUM_SERVOS >= 2 && HAS_SERVO_1
// 1026     servo[1].attach(SERVO1_PIN);
// 1027     servo[1].detach();
// 1028   #endif
// 1029   #if NUM_SERVOS >= 3 && HAS_SERVO_2
// 1030     servo[2].attach(SERVO2_PIN);
// 1031     servo[2].detach();
// 1032   #endif
// 1033   #if NUM_SERVOS >= 4 && HAS_SERVO_3
// 1034     servo[3].attach(SERVO3_PIN);
// 1035     servo[3].detach();
// 1036   #endif
// 1037 
// 1038   #if HAS_Z_SERVO_ENDSTOP
// 1039     /**
// 1040      * Set position of Z Servo Endstop
// 1041      *
// 1042      * The servo might be deployed and positioned too low to stow
// 1043      * when starting up the machine or rebooting the board.
// 1044      * There's no way to know where the nozzle is positioned until
// 1045      * homing has been done - no homing with z-probe without init!
// 1046      *
// 1047      */
// 1048     STOW_Z_SERVO();
// 1049   #endif
// 1050 }
_Z10servo_initv:
        BX       LR               ;; return
          CFI EndBlock cfiBlock18
// 1051 
// 1052 /**
// 1053  * Stepper Reset (RigidBoard, et.al.)
// 1054  */
// 1055 #if HAS_STEPPER_RESET
// 1056   void disableStepperDrivers() {
// 1057     OUT_WRITE(STEPPER_RESET_PIN, LOW);  // drive it down to hold in reset motor driver chips
// 1058   }
// 1059   void enableStepperDrivers() { SET_INPUT(STEPPER_RESET_PIN); }  // set to input, which allows it to be pulled high by pullups
// 1060 #endif
// 1061 
// 1062 #if ENABLED(EXPERIMENTAL_I2CBUS) && I2C_SLAVE_ADDRESS > 0
// 1063 
// 1064   void i2c_on_receive(int bytes) { // just echo all bytes received to serial
// 1065     i2c.receive(bytes);
// 1066   }
// 1067 
// 1068   void i2c_on_request() {          // just send dummy data for now
// 1069     i2c.reply("Hello World!\n");
// 1070   }
// 1071 
// 1072 #endif
// 1073 

        SECTION `.text`:CODE:NOROOT(1)
          CFI Block cfiBlock19 Using cfiCommon0
          CFI Function _Z16gcode_line_errorPKcb
        THUMB
// 1074 void gcode_line_error(const char* err, bool doFlush = true) {
_Z16gcode_line_errorPKcb:
        PUSH     {R3-R5,LR}
          CFI R14 Frame(CFA, -4)
          CFI R5 Frame(CFA, -8)
          CFI R4 Frame(CFA, -12)
          CFI CFA R13+16
        MOV      R4,R0
        MOV      R5,R1
// 1075   SERIAL_ERROR_START();
        LDR.W    R0,??DataTable107_3
          CFI FunCall _Z14serialprintPGMPKc
        BL       _Z14serialprintPGMPKc
// 1076   serialprintPGM(err);
        MOV      R0,R4
          CFI FunCall _Z14serialprintPGMPKc
        BL       _Z14serialprintPGMPKc
// 1077   SERIAL_ERRORLN(gcode_LastN);
        LDR.W    R4,??DataTable109
        MOVS     R2,#+10
        LDR.W    R0,??DataTable107
        LDR      R1,[R0, #+112]
        MOV      R0,R4
          CFI FunCall _ZN5Print5printEli
        BL       _ZN5Print5printEli
        MOVS     R1,#+10
        MOV      R0,R4
          CFI FunCall _ZN10USARTClass5writeEh
        BL       _ZN10USARTClass5writeEh
// 1078   //Serial.println(gcode_N);
// 1079   if (doFlush) FlushSerialRequestResend();
        CMP      R5,#+0
        BEQ.N    ??gcode_line_error_0
          CFI FunCall _Z24FlushSerialRequestResendv
        BL       _Z24FlushSerialRequestResendv
// 1080   serial_count = 0;
??gcode_line_error_0:
        MOVS     R0,#+0
        LDR.W    R1,??DataTable111
        STR      R0,[R1, #+0]
// 1081 }
        POP      {R0,R4,R5,PC}    ;; return
          CFI EndBlock cfiBlock19
// 1082 
// 1083 uint8_t serial_wait_tick = 0; //use to calculate the serial wait ticks
// 1084 
// 1085 uint8_t from_wifi_flag = 0; // whether data comes from wifi model
// 1086 
// 1087 /**
// 1088  * Get all commands waiting on the serial port and queue them.
// 1089  * Exit when the buffer is full or when no more characters are
// 1090  * left on the serial port.
// 1091  */
// 1092 inline void get_serial_commands() {
// 1093   static char serial_line_buffer[MAX_CMD_SIZE];
// 1094   static bool serial_comment_mode = false;
// 1095   static millis_t last_wait_time = 0;
// 1096   const millis_t wait_ms = millis();
// 1097 
// 1098   // If the command buffer is empty for too long,
// 1099   // send "wait" to indicate Marlin is still waiting.
// 1100   #if defined(NO_TIMEOUTS) && NO_TIMEOUTS > 0
// 1101     static millis_t last_command_time = 0;
// 1102     const millis_t ms = millis();
// 1103     if (commands_in_queue == 0 && !MYSERIAL.available() && ELAPSED(ms, last_command_time + NO_TIMEOUTS)) {
// 1104       SERIAL_ECHOLNPGM(MSG_WAIT);
// 1105       last_command_time = ms;
// 1106     }
// 1107   #endif
// 1108 #if 1
// 1109   
// 1110 	  /*5s?¡§?2a2?|¨¬?????¡§2¡§oy?Y?¡§¡ã¡§¡§??a??¡§?D¡§¡éa?¡§2?????¨º??¡§|¡§o1¡§??wifi*/
// 1111 	 if (commands_in_queue == 0 && !MYSERIAL.available() && ELAPSED(wait_ms, last_wait_time + 1000)) {
// 1112 		if(serial_wait_tick <= 5)
// 1113 	  {
// 1114 		  serial_wait_tick ++;
// 1115 	  }
// 1116 		last_wait_time = wait_ms;
// 1117 	  }
// 1118 #endif
// 1119 
// 1120   /**
// 1121    * Loop while serial characters are incoming and the queue is not full
// 1122    */
// 1123   int c;
// 1124   while (commands_in_queue < BUFSIZE && (c = MYSERIAL.read()) >= 0) {
// 1125 
// 1126     char serial_char = c;
// 1127 	
// 1128 	serial_wait_tick = 0;
// 1129 	from_wifi_flag = 0;
// 1130 
// 1131     /**
// 1132      * If the character ends the line
// 1133      */
// 1134     if (serial_char == '\n' || serial_char == '\r') {
// 1135 
// 1136       serial_comment_mode = false;                      // end of line == end of comment
// 1137 
// 1138       if (!serial_count) continue;                      // Skip empty lines
// 1139 
// 1140       serial_line_buffer[serial_count] = 0;             // Terminate string
// 1141       serial_count = 0;                                 // Reset buffer
// 1142 
// 1143       char* command = serial_line_buffer;
// 1144 
// 1145       while (*command == ' ') command++;                // Skip leading spaces
// 1146       char *npos = (*command == 'N') ? command : NULL;  // Require the N parameter to start the line
// 1147 
// 1148       if (npos) {
// 1149 
// 1150         bool M110 = strstr_P(command, PSTR("M110")) != NULL;
// 1151 
// 1152         if (M110) {
// 1153           char* n2pos = strchr(command + 4, 'N');
// 1154           if (n2pos) npos = n2pos;
// 1155         }
// 1156 
// 1157         gcode_N = strtol(npos + 1, NULL, 10);
// 1158 
// 1159         if (gcode_N != gcode_LastN + 1 && !M110) {
// 1160           gcode_line_error(PSTR(MSG_ERR_LINE_NO));
// 1161           return;
// 1162         }
// 1163 
// 1164         char *apos = strrchr(command, '*');
// 1165         if (apos) {
// 1166           uint8_t checksum = 0, count = uint8_t(apos - command);
// 1167           while (count) checksum ^= command[--count];
// 1168           if (strtol(apos + 1, NULL, 10) != checksum) {
// 1169             gcode_line_error(PSTR(MSG_ERR_CHECKSUM_MISMATCH));
// 1170             return;
// 1171           }
// 1172         }
// 1173         else {
// 1174           gcode_line_error(PSTR(MSG_ERR_NO_CHECKSUM));
// 1175           return;
// 1176         }
// 1177 
// 1178         gcode_LastN = gcode_N;
// 1179       }
// 1180 
// 1181       // Movement commands alert when stopped
// 1182       if (IsStopped()) {
// 1183         char* gpos = strchr(command, 'G');
// 1184         if (gpos) {
// 1185           const int codenum = strtol(gpos + 1, NULL, 10);
// 1186           switch (codenum) {
// 1187             case 0:
// 1188             case 1:
// 1189             case 2:
// 1190             case 3:
// 1191               SERIAL_ERRORLNPGM(MSG_ERR_STOPPED);
// 1192               LCD_MESSAGEPGM(MSG_STOPPED);
// 1193               break;
// 1194           }
// 1195         }
// 1196       }
// 1197 
// 1198       #if DISABLED(EMERGENCY_PARSER)
// 1199         // If command was e-stop process now
// 1200         if (strcmp(command, "M108") == 0) {
// 1201           wait_for_heatup = false;
// 1202           #if ENABLED(ULTIPANEL)
// 1203             wait_for_user = false;
// 1204           #endif
// 1205         }
// 1206         if (strcmp(command, "M112") == 0) kill(PSTR(MSG_KILLED));
// 1207         if (strcmp(command, "M410") == 0) { quickstop_stepper(); }
// 1208       #endif
// 1209 
// 1210       #if defined(NO_TIMEOUTS) && NO_TIMEOUTS > 0
// 1211         last_command_time = ms;
// 1212       #endif
// 1213 
// 1214       // Add the command to the queue
// 1215       _enqueuecommand(serial_line_buffer, true);
// 1216     }
// 1217     else if (serial_count >= MAX_CMD_SIZE - 1) {
// 1218       // Keep fetching, but ignore normal characters beyond the max length
// 1219       // The command will be injected when EOL is reached
// 1220     }
// 1221     else if (serial_char == '\\') {  // Handle escapes
// 1222       if ((c = MYSERIAL.read()) >= 0) {
// 1223         // if we have one more character, copy it over
// 1224         serial_char = c;
// 1225         if (!serial_comment_mode) serial_line_buffer[serial_count++] = serial_char;
// 1226       }
// 1227       // otherwise do nothing
// 1228     }
// 1229     else { // it's not a newline, carriage return or escape char
// 1230       if (serial_char == ';') serial_comment_mode = true;
// 1231       if (!serial_comment_mode) serial_line_buffer[serial_count++] = serial_char;
// 1232     }
// 1233 
// 1234   } // queue has space, serial has data
// 1235 }
// 1236 
// 1237 #if ENABLED(SDSUPPORT)
// 1238 
// 1239   /**
// 1240    * Get commands from the SD Card until the command buffer is full
// 1241    * or until the end of the file is reached. The special character '#'
// 1242    * can also interrupt buffering.
// 1243    */
// 1244   inline void get_sdcard_commands() {
// 1245     static bool stop_buffering = false,
// 1246                 sd_comment_mode = false;
// 1247 
// 1248     if (!card.sdprinting) return;
// 1249 
// 1250     /**
// 1251      * '#' stops reading from SD to the buffer prematurely, so procedural
// 1252      * macro calls are possible. If it occurs, stop_buffering is triggered
// 1253      * and the buffer is run dry; this character _can_ occur in serial com
// 1254      * due to checksums, however, no checksums are used in SD printing.
// 1255      */
// 1256 
// 1257     if (commands_in_queue == 0) stop_buffering = false;
// 1258 
// 1259     uint16_t sd_count = 0;
// 1260     bool card_eof = card.eof();
// 1261     while (commands_in_queue < BUFSIZE && !card_eof && !stop_buffering) {
// 1262       const int16_t n = card.get();
// 1263       char sd_char = (char)n;
// 1264       card_eof = card.eof();
// 1265       if (card_eof || n == -1
// 1266           || sd_char == '\n' || sd_char == '\r'
// 1267           || ((sd_char == '#' || sd_char == ':') && !sd_comment_mode)
// 1268       ) {
// 1269         if (card_eof) {
// 1270           gCfgItems.breakpoint_reprint_flg = 0;
// 1271           gCfgItems.breakpoint_z_pos = 0;
// 1272 
// 1273           card.printingHasFinished();
// 1274 
// 1275           if (card.sdprinting)
// 1276             sd_count = 0; // If a sub-file was printing, continue from call point
// 1277           else {
// 1278             SERIAL_PROTOCOLLNPGM(MSG_FILE_PRINTED);
// 1279             #if ENABLED(PRINTER_EVENT_LEDS)
// 1280               LCD_MESSAGEPGM(MSG_INFO_COMPLETED_PRINTS);
// 1281               leds.set_green();
// 1282               #if HAS_RESUME_CONTINUE
// 1283                 enqueue_and_echo_commands_P(PSTR("M0")); // end of the queue!
// 1284               #else
// 1285                 safe_delay(1000);
// 1286               #endif
// 1287               leds.set_off();
// 1288             #endif
// 1289             card.checkautostart(true);
// 1290 			
// 1291 			#if 1
// 1292 			
// 1293 			
// 1294 			//¡ä¨°¨ª¨º1??¨²?¡ê
// 1295 			if((gCfgItems.print_finish_close_machine_flg == 1)&&(IsChooseAutoShutdown==1))
// 1296 			    Close_machine_display();
// 1297 
// 1298             #endif 				
// 1299           }
// 1300         }
// 1301         else if (n == -1) {
// 1302           SERIAL_ERROR_START();
// 1303           SERIAL_ECHOLNPGM(MSG_SD_ERR_READ);
// 1304         }
// 1305         if (sd_char == '#') stop_buffering = true;
// 1306 
// 1307         sd_comment_mode = false; // for new command
// 1308 
// 1309         if (!sd_count) continue; // skip empty lines (and comment lines)
// 1310 
// 1311         command_queue[cmd_queue_index_w][sd_count] = '\0'; // terminate string
// 1312         sd_count = 0; // clear sd line buffer
// 1313 
// 1314         _commit_command(false);
// 1315       }
// 1316       else if (sd_count >= MAX_CMD_SIZE - 1) {
// 1317         /**
// 1318          * Keep fetching, but ignore normal characters beyond the max length
// 1319          * The command will be injected when EOL is reached
// 1320          */
// 1321       }
// 1322       else {
// 1323         if (sd_char == ';') sd_comment_mode = true;
// 1324         //if (!sd_comment_mode) command_queue[cmd_queue_index_w][sd_count++] = sd_char;
// 1325         if (!sd_comment_mode) 
// 1326         {
// 1327 			command_queue[cmd_queue_index_w][sd_count++] = sd_char;
// 1328 #if 0	//mks dlp			
// 1329 			if(sd_char == 0x5a ) //"Z"
// 1330 			{
// 1331 				mksReprint.sdpos = card.getsdpos()-3;	//"¡¤?2?????"
// 1332 				#if 1
// 1333 				mksReprint.sdpos_bak = mksReprint.sdpos;//sdpos_bak¦Ì?¨¨Y??¦Ì?¡ê????¡ä¨º1¨®?
// 1334 				if(gCfgItems.pwroff_save_mode != 1)//sd?¡§¡À¡ê¡ä???¦Ì?¨ºy?Y
// 1335                 #endif
// 1336 					mksReprint.refresh = true;
// 1337 			}
// 1338 #endif			
// 1339         }        
// 1340       }
// 1341     }
// 1342   }
// 1343 
// 1344 #endif // SDSUPPORT
// 1345 #if 1
// 1346 inline void get_wifi_commands() {
// 1347   static char wifi_line_buffer[MAX_CMD_SIZE];
// 1348   static bool wifi_comment_mode = false;
// 1349 
// 1350   if(serial_wait_tick > 5)
// 1351   {
// 1352   	from_wifi_flag = 1;
// 1353 
// 1354 /**
// 1355 	   * Loop while serial characters are incoming and the queue is not full
// 1356 	   */
// 1357 	  while ((commands_in_queue < BUFSIZE) && (espGcodeFifo.r != espGcodeFifo.w)) {
// 1358 
// 1359 	    char wifi_char = espGcodeFifo.Buffer[espGcodeFifo.r];
// 1360 
// 1361 	    espGcodeFifo.r = (espGcodeFifo.r + 1) % WIFI_GCODE_BUFFER_SIZE;
// 1362 
// 1363 	    /**
// 1364 	     * If the character ends the line
// 1365 	     */
// 1366 	    if (wifi_char == '\n' || wifi_char == '\r') {
// 1367 
// 1368 	      wifi_comment_mode = false; // end of line == end of comment
// 1369 
// 1370 	      if (!wifi_read_count) continue; // skip empty lines
// 1371 
// 1372 	      wifi_line_buffer[wifi_read_count] = 0; // terminate string
// 1373 	      wifi_read_count = 0; //reset buffer
// 1374 
// 1375 	      char* command = wifi_line_buffer;
// 1376 
// 1377 	      while (*command == ' ') command++; // skip any leading spaces	    
// 1378 
// 1379 	      // Movement commands alert when stopped
// 1380 	      if (IsStopped()) {
// 1381 	        char* gpos = strchr(command, 'G');
// 1382 	        if (gpos) {
// 1383 	          const int codenum = strtol(gpos + 1, NULL, 10);
// 1384 	          switch (codenum) {
// 1385 	            case 0:
// 1386 	            case 1:
// 1387 	            case 2:
// 1388 	            case 3:
// 1389 	              SERIAL_ERRORLNPGM(MSG_ERR_STOPPED);
// 1390 	              LCD_MESSAGEPGM(MSG_STOPPED);
// 1391 	              break;
// 1392 	          }
// 1393 	        }
// 1394 	      }
// 1395 
// 1396 	      #if DISABLED(EMERGENCY_PARSER)
// 1397 	        // If command was e-stop process now
// 1398 	        if (strcmp(command, "M108") == 0) {
// 1399 	          wait_for_heatup = false;
// 1400 	          #if ENABLED(ULTIPANEL)
// 1401 	            wait_for_user = false;
// 1402 	          #endif
// 1403 	        }
// 1404 	        if (strcmp(command, "M112") == 0) kill(PSTR(MSG_KILLED));
// 1405 	        if (strcmp(command, "M410") == 0) { quickstop_stepper(); }
// 1406 	      #endif
// 1407 
// 1408 	      #if defined(NO_TIMEOUTS) && NO_TIMEOUTS > 0
// 1409 	        last_command_time = ms;
// 1410 	      #endif
// 1411 
// 1412 	      // Add the command to the queue
// 1413 	      _enqueuecommand(wifi_line_buffer, true);
// 1414 	    }
// 1415 	    else if (wifi_read_count >= MAX_CMD_SIZE - 1) {
// 1416 	      // Keep fetching, but ignore normal characters beyond the max length
// 1417 	      // The command will be injected when EOL is reached
// 1418 	    }
// 1419 		/*
// 1420 	    else if (wifi_char == '\\') {  // Handle escapes
// 1421 	      if (MYSERIAL.available() > 0) {
// 1422 	        // if we have one more character, copy it over
// 1423 	        wifi_char = MYSERIAL.read();
// 1424 	        if (!serial_comment_mode) serial_line_buffer[serial_count++] = serial_char;
// 1425 	      }
// 1426 	      // otherwise do nothing
// 1427 	    }*/
// 1428 	    else { // it's not a newline, carriage return or escape char
// 1429 	      if (wifi_char == ';') wifi_comment_mode = true;
// 1430 	      if (!wifi_comment_mode) wifi_line_buffer[wifi_read_count++] = wifi_char;
// 1431 	    }
// 1432 
// 1433 	  }
// 1434     }// queue has space, serial has data
// 1435     else
// 1436     {
// 1437     	from_wifi_flag = 0;
// 1438     }
// 1439 }
// 1440 #endif
// 1441 
// 1442 /**
// 1443  * Add to the circular command queue the next command from:
// 1444  *  - The command-injection queue (injected_commands_P)
// 1445  *  - The active serial input (usually USB)
// 1446  *  - The SD card file being actively printed
// 1447  */

        SECTION `.text`:CODE:NOROOT(1)
          CFI Block cfiBlock20 Using cfiCommon0
          CFI Function _Z22get_available_commandsv
        THUMB
// 1448 void get_available_commands() {
_Z22get_available_commandsv:
        PUSH     {R7,LR}
          CFI R14 Frame(CFA, -4)
          CFI CFA R13+8
// 1449 
// 1450   // if any immediate commands remain, don't get other commands yet
// 1451   if (drain_injected_commands_P()) return;
          CFI FunCall _Z25drain_injected_commands_Pv
        BL       _Z25drain_injected_commands_Pv
        CMP      R0,#+0
        BNE.N    ??get_available_commands_0
// 1452 
// 1453   get_serial_commands();
          CFI FunCall _Z19get_serial_commandsv
        BL       _Z19get_serial_commandsv
// 1454   
// 1455 #if 1
// 1456 	get_wifi_commands();
        POP      {R0,LR}
          CFI R14 SameValue
          CFI CFA R13+0
          CFI FunCall _Z17get_wifi_commandsv
        B.W      _Z17get_wifi_commandsv
          CFI R14 Frame(CFA, -4)
          CFI CFA R13+8
??get_available_commands_0:
        POP      {R0,PC}          ;; return
          CFI EndBlock cfiBlock20
// 1457 #endif
// 1458 
// 1459   #if ENABLED(SDSUPPORT) && DISABLED(MKS_DLP_BOARD)
// 1460     get_sdcard_commands();
// 1461   #endif
// 1462 }
// 1463 
// 1464 /**
// 1465  * Set target_extruder from the T parameter or the active_extruder
// 1466  *
// 1467  * Returns TRUE if the target is invalid
// 1468  */

        SECTION `.text`:CODE:NOROOT(1)
          CFI Block cfiBlock21 Using cfiCommon0
          CFI Function _Z32get_target_extruder_from_commandt
        THUMB
// 1469 bool get_target_extruder_from_command(const uint16_t code) {
_Z32get_target_extruder_from_commandt:
        PUSH     {R4-R6,LR}
          CFI R14 Frame(CFA, -4)
          CFI R6 Frame(CFA, -8)
          CFI R5 Frame(CFA, -12)
          CFI R4 Frame(CFA, -16)
          CFI CFA R13+16
        MOV      R4,R0
// 1470   if (parser.seenval('T')) {
        MOVS     R0,#+84
          CFI FunCall _ZN11GCodeParser7seenvalEc
        BL       _ZN11GCodeParser7seenvalEc
        CMP      R0,#+0
        BEQ.N    ??get_target_extruder_from_command_0
// 1471     const int8_t e = parser.value_byte();
          CFI FunCall _ZN11GCodeParser10value_byteEv
        BL       _ZN11GCodeParser10value_byteEv
        MOV      R5,R0
        SXTB     R5,R5
// 1472     if (e >= EXTRUDERS) {
        CMP      R5,#+1
        BLT.N    ??get_target_extruder_from_command_1
// 1473       SERIAL_ECHO_START();
        LDR.W    R0,??DataTable107_2
          CFI FunCall _Z14serialprintPGMPKc
        BL       _Z14serialprintPGMPKc
// 1474       SERIAL_CHAR('M');
        LDR.W    R6,??DataTable109
        MOVS     R1,#+77
        MOV      R0,R6
          CFI FunCall _ZN10USARTClass5writeEh
        BL       _ZN10USARTClass5writeEh
// 1475       SERIAL_ECHO(code);
        MOVS     R2,#+10
        MOV      R1,R4
        MOV      R0,R6
          CFI FunCall _ZN5Print5printEii
        BL       _ZN5Print5printEii
// 1476       SERIAL_ECHOLNPAIR(" " MSG_INVALID_EXTRUDER " ", e);
        MOV      R1,R5
        ADR.W    R0,`?<Constant " Invalid extruder ">`
          CFI FunCall _Z17serial_echopair_PPKci
        BL       _Z17serial_echopair_PPKci
        MOVS     R1,#+10
        MOV      R0,R6
          CFI FunCall _ZN10USARTClass5writeEh
        BL       _ZN10USARTClass5writeEh
// 1477       return true;
        MOVS     R0,#+1
        POP      {R4-R6,PC}
// 1478     }
// 1479     target_extruder = e;
??get_target_extruder_from_command_1:
        LDR.W    R0,??DataTable111_1
        STRB     R5,[R0, #+22]
        B.N      ??get_target_extruder_from_command_2
// 1480   }
// 1481   else
// 1482     target_extruder = active_extruder;
??get_target_extruder_from_command_0:
        LDR.W    R0,??DataTable111_1
        LDRB     R1,[R0, #+19]
        STRB     R1,[R0, #+22]
// 1483 
// 1484   return false;
??get_target_extruder_from_command_2:
        MOVS     R0,#+0
        POP      {R4-R6,PC}       ;; return
          CFI EndBlock cfiBlock21
// 1485 }

        SECTION `.text`:CODE:NOROOT(2)
        SECTION_TYPE SHT_PROGBITS, 0
        DATA
`?<Constant " Invalid extruder ">`:
        DC8 " Invalid extruder "
        DC8 0
// 1486 
// 1487 #if ENABLED(DUAL_X_CARRIAGE) || ENABLED(DUAL_NOZZLE_DUPLICATION_MODE)
// 1488   bool extruder_duplication_enabled = false; // Used in Dual X mode 2
// 1489 #endif
// 1490 
// 1491 #if ENABLED(DUAL_X_CARRIAGE)
// 1492 
// 1493   static DualXMode dual_x_carriage_mode = DEFAULT_DUAL_X_CARRIAGE_MODE;
// 1494 
// 1495   static float x_home_pos(const int extruder) {
// 1496     if (extruder == 0)
// 1497       return base_home_pos(X_AXIS);
// 1498     else
// 1499       /**
// 1500        * In dual carriage mode the extruder offset provides an override of the
// 1501        * second X-carriage position when homed - otherwise X2_HOME_POS is used.
// 1502        * This allows soft recalibration of the second extruder home position
// 1503        * without firmware reflash (through the M218 command).
// 1504        */
// 1505       return hotend_offset[X_AXIS][1] > 0 ? hotend_offset[X_AXIS][1] : X2_HOME_POS;
// 1506   }
// 1507 
// 1508   static int x_home_dir(const int extruder) { return extruder ? X2_HOME_DIR : X_HOME_DIR; }
// 1509 
// 1510   static float inactive_extruder_x_pos = X2_MAX_POS; // used in mode 0 & 1
// 1511   static bool active_extruder_parked = false;        // used in mode 1 & 2
// 1512   static float raised_parked_position[XYZE];         // used in mode 1
// 1513   static millis_t delayed_move_time = 0;             // used in mode 1
// 1514   static float duplicate_extruder_x_offset = DEFAULT_DUPLICATION_X_OFFSET; // used in mode 2
// 1515   static int16_t duplicate_extruder_temp_offset = 0; // used in mode 2
// 1516 
// 1517 #endif // DUAL_X_CARRIAGE
// 1518 
// 1519 #if HAS_WORKSPACE_OFFSET || ENABLED(DUAL_X_CARRIAGE)
// 1520 
// 1521   /**
// 1522    * Software endstops can be used to monitor the open end of
// 1523    * an axis that has a hardware endstop on the other end. Or
// 1524    * they can prevent axes from moving past endstops and grinding.
// 1525    *
// 1526    * To keep doing their job as the coordinate system changes,
// 1527    * the software endstop positions must be refreshed to remain
// 1528    * at the same positions relative to the machine.
// 1529    */

        SECTION `.text`:CODE:NOROOT(1)
          CFI Block cfiBlock22 Using cfiCommon0
          CFI Function _Z24update_software_endstops8AxisEnum
        THUMB
// 1530   void update_software_endstops(const AxisEnum axis) {
_Z24update_software_endstops8AxisEnum:
        PUSH     {R3-R5,LR}
          CFI R14 Frame(CFA, -4)
          CFI R5 Frame(CFA, -8)
          CFI R4 Frame(CFA, -12)
          CFI CFA R13+16
        MOV      R4,R0
// 1531     #if HAS_HOME_OFFSET && HAS_POSITION_SHIFT
// 1532       workspace_offset[axis] = home_offset[axis] + position_shift[axis];
        LDR.W    R0,??DataTable104_9
        ADD      R5,R0,R4, LSL #+2
        LDR.W    R0,??DataTable111_1
        ADD      R0,R0,R4, LSL #+2
        VLDR     S0,[R0, #+84]
        VLDR     S1,[R0, #+128]
        VADD.F32 S0,S0,S1
        VSTR     S0,[R5, #+4]
// 1533     #endif
// 1534 
// 1535     #if ENABLED(DUAL_X_CARRIAGE)
// 1536       if (axis == X_AXIS) {
// 1537 
// 1538         // In Dual X mode hotend_offset[X] is T1's home position
// 1539         float dual_max_x = max(hotend_offset[X_AXIS][1], X2_MAX_POS);
// 1540 
// 1541         if (active_extruder != 0) {
// 1542           // T1 can move from X2_MIN_POS to X2_MAX_POS or X2 home position (whichever is larger)
// 1543           soft_endstop_min[X_AXIS] = X2_MIN_POS;
// 1544           soft_endstop_max[X_AXIS] = dual_max_x;
// 1545         }
// 1546         else if (dual_x_carriage_mode == DXC_DUPLICATION_MODE) {
// 1547           // In Duplication Mode, T0 can move as far left as X_MIN_POS
// 1548           // but not so far to the right that T1 would move past the end
// 1549           soft_endstop_min[X_AXIS] = base_min_pos(X_AXIS);
// 1550           soft_endstop_max[X_AXIS] = min(base_max_pos(X_AXIS), dual_max_x - duplicate_extruder_x_offset);
// 1551         }
// 1552         else {
// 1553           // In other modes, T0 can move from X_MIN_POS to X_MAX_POS
// 1554           soft_endstop_min[axis] = base_min_pos(axis);
// 1555           soft_endstop_max[axis] = base_max_pos(axis);
// 1556         }
// 1557       }
// 1558     #elif ENABLED(DELTA)
// 1559       soft_endstop_min[axis] = base_min_pos(axis);
// 1560       soft_endstop_max[axis] = axis == Z_AXIS ? delta_height : base_max_pos(axis);
// 1561     #else
// 1562       soft_endstop_min[axis] = base_min_pos(axis);
        MOV      R0,R4
          CFI FunCall _Z12base_min_pos8AxisEnum
        BL       _Z12base_min_pos8AxisEnum
        VSTR     S0,[R5, #+16]
// 1563       soft_endstop_max[axis] = base_max_pos(axis);
        MOV      R0,R4
          CFI FunCall _Z12base_max_pos8AxisEnum
        BL       _Z12base_max_pos8AxisEnum
        VSTR     S0,[R5, #+28]
// 1564     #endif
// 1565 
// 1566     #if ENABLED(DEBUG_LEVELING_FEATURE)
// 1567       if (DEBUGGING(LEVELING)) {
// 1568         SERIAL_ECHOPAIR("For ", axis_codes[axis]);
// 1569         #if HAS_HOME_OFFSET
// 1570           SERIAL_ECHOPAIR(" axis:\n home_offset = ", home_offset[axis]);
// 1571         #endif
// 1572         #if HAS_POSITION_SHIFT
// 1573           SERIAL_ECHOPAIR("\n position_shift = ", position_shift[axis]);
// 1574         #endif
// 1575         SERIAL_ECHOPAIR("\n soft_endstop_min = ", soft_endstop_min[axis]);
// 1576         SERIAL_ECHOLNPAIR("\n soft_endstop_max = ", soft_endstop_max[axis]);
// 1577       }
// 1578     #endif
// 1579 
// 1580     #if ENABLED(DELTA)
// 1581       switch(axis) {
// 1582         case X_AXIS:
// 1583         case Y_AXIS:
// 1584           // Get a minimum radius for clamping
// 1585           soft_endstop_radius = MIN3(FABS(max(soft_endstop_min[X_AXIS], soft_endstop_min[Y_AXIS])), soft_endstop_max[X_AXIS], soft_endstop_max[Y_AXIS]);
// 1586           soft_endstop_radius_2 = sq(soft_endstop_radius);
// 1587           break;
// 1588         case Z_AXIS:
// 1589           delta_clip_start_height = soft_endstop_max[axis] - delta_safe_distance_from_top();
// 1590         default: break;
// 1591       }
// 1592     #endif
// 1593   }
        POP      {R0,R4,R5,PC}    ;; return
          CFI EndBlock cfiBlock22
// 1594 
// 1595 #endif // HAS_WORKSPACE_OFFSET || DUAL_X_CARRIAGE
// 1596 
// 1597 #if HAS_M206_COMMAND
// 1598   /**
// 1599    * Change the home offset for an axis, update the current
// 1600    * position and the software endstops to retain the same
// 1601    * relative distance to the new home.
// 1602    *
// 1603    * Since this changes the current_position, code should
// 1604    * call sync_plan_position soon after this.
// 1605    */

        SECTION `.text`:CODE:NOROOT(1)
          CFI Block cfiBlock23 Using cfiCommon0
          CFI Function _Z15set_home_offset8AxisEnumf
        THUMB
// 1606   static void set_home_offset(const AxisEnum axis, const float v) {
// 1607     home_offset[axis] = v;
_Z15set_home_offset8AxisEnumf:
        LDR.W    R1,??DataTable111_1
        ADD      R1,R1,R0, LSL #+2
        VSTR     S0,[R1, #+84]
// 1608     update_software_endstops(axis);
          CFI FunCall _Z24update_software_endstops8AxisEnum
        B.N      _Z24update_software_endstops8AxisEnum
          CFI EndBlock cfiBlock23
// 1609   }
// 1610 #endif // HAS_M206_COMMAND
// 1611 
// 1612 /**
// 1613  * Set an axis' current position to its home position (after homing).
// 1614  *
// 1615  * For Core and Cartesian robots this applies one-to-one when an
// 1616  * individual axis has been homed.
// 1617  *
// 1618  * DELTA should wait until all homing is done before setting the XYZ
// 1619  * current_position to home, because homing is a single operation.
// 1620  * In the case where the axis positions are already known and previously
// 1621  * homed, DELTA could home to X or Y individually by moving either one
// 1622  * to the center. However, homing Z always homes XY and Z.
// 1623  *
// 1624  * SCARA should wait until all XY homing is done before setting the XY
// 1625  * current_position to home, because neither X nor Y is at home until
// 1626  * both are at home. Z can however be homed individually.
// 1627  *
// 1628  * Callers must sync the planner position after calling this!
// 1629  */

        SECTION `.text`:CODE:NOROOT(1)
          CFI Block cfiBlock24 Using cfiCommon0
          CFI Function _Z19set_axis_is_at_home8AxisEnum
        THUMB
// 1630 static void set_axis_is_at_home(const AxisEnum axis) {
_Z19set_axis_is_at_home8AxisEnum:
        PUSH     {R4-R6,LR}
          CFI R14 Frame(CFA, -4)
          CFI R6 Frame(CFA, -8)
          CFI R5 Frame(CFA, -12)
          CFI R4 Frame(CFA, -16)
          CFI CFA R13+16
        MOV      R4,R0
// 1631   #if ENABLED(DEBUG_LEVELING_FEATURE)
// 1632     if (DEBUGGING(LEVELING)) {
// 1633       SERIAL_ECHOPAIR(">>> set_axis_is_at_home(", axis_codes[axis]);
// 1634       SERIAL_CHAR(')');
// 1635       SERIAL_EOL();
// 1636     }
// 1637   #endif
// 1638 
// 1639   axis_known_position[axis] = axis_homed[axis] = true;
        LDR.W    R5,??DataTable107
        ADDS     R0,R4,R5
        MOVS     R1,#+1
        STRB     R1,[R0, #+4]
        STRB     R1,[R0, #+8]
// 1640 
// 1641   #if HAS_POSITION_SHIFT
// 1642     position_shift[axis] = 0;
        ADD      R6,R5,R4, LSL #+2
        MOVS     R0,#+0
        STR      R0,[R6, #+128]
// 1643     update_software_endstops(axis);
        MOV      R0,R4
          CFI FunCall _Z24update_software_endstops8AxisEnum
        BL       _Z24update_software_endstops8AxisEnum
// 1644   #endif
// 1645 
// 1646   #if ENABLED(DUAL_X_CARRIAGE)
// 1647     if (axis == X_AXIS && (active_extruder == 1 || dual_x_carriage_mode == DXC_DUPLICATION_MODE)) {
// 1648       current_position[X_AXIS] = x_home_pos(active_extruder);
// 1649       return;
// 1650     }
// 1651   #endif
// 1652 
// 1653   #if ENABLED(MORGAN_SCARA)
// 1654 
// 1655     /**
// 1656      * Morgan SCARA homes XY at the same time
// 1657      */
// 1658     if (axis == X_AXIS || axis == Y_AXIS) {
// 1659 
// 1660       float homeposition[XYZ] = {
// 1661         base_home_pos(X_AXIS),
// 1662         base_home_pos(Y_AXIS),
// 1663         base_home_pos(Z_AXIS)
// 1664       };
// 1665 
// 1666       // SERIAL_ECHOPAIR("homeposition X:", homeposition[X_AXIS]);
// 1667       // SERIAL_ECHOLNPAIR(" Y:", homeposition[Y_AXIS]);
// 1668 
// 1669       /**
// 1670        * Get Home position SCARA arm angles using inverse kinematics,
// 1671        * and calculate homing offset using forward kinematics
// 1672        */
// 1673       inverse_kinematics(homeposition);
// 1674       forward_kinematics_SCARA(delta[A_AXIS], delta[B_AXIS]);
// 1675 
// 1676       // SERIAL_ECHOPAIR("Cartesian X:", cartes[X_AXIS]);
// 1677       // SERIAL_ECHOLNPAIR(" Y:", cartes[Y_AXIS]);
// 1678 
// 1679       current_position[axis] = cartes[axis];
// 1680 
// 1681       /**
// 1682        * SCARA home positions are based on configuration since the actual
// 1683        * limits are determined by the inverse kinematic transform.
// 1684        */
// 1685       soft_endstop_min[axis] = base_min_pos(axis); // + (cartes[axis] - base_home_pos(axis));
// 1686       soft_endstop_max[axis] = base_max_pos(axis); // + (cartes[axis] - base_home_pos(axis));
// 1687     }
// 1688     else
// 1689   #elif ENABLED(DELTA)
// 1690     if (axis == Z_AXIS)
// 1691       current_position[axis] = delta_height;
// 1692     else
// 1693   #endif
// 1694   {
// 1695     current_position[axis] = base_home_pos(axis);
        MOV      R0,R4
          CFI FunCall _Z13base_home_pos8AxisEnum
        BL       _Z13base_home_pos8AxisEnum
        VSTR     S0,[R6, #+36]
// 1696     current_position[C_AXIS] = home_offset[C_AXIS];   //mks_dlp 
        LDR      R0,[R5, #+92]
        STR      R0,[R5, #+44]
// 1697   }
// 1698 
// 1699   /**
// 1700    * Z Probe Z Homing? Account for the probe's Z offset.
// 1701    */
// 1702   //#if HAS_BED_PROBE && Z_HOME_DIR < 0
// 1703 #if 0
// 1704     if (axis == Z_AXIS) {
// 1705       #if HOMING_Z_WITH_PROBE
// 1706 
// 1707         current_position[Z_AXIS] -= zprobe_zoffset;
// 1708 
// 1709         #if ENABLED(DEBUG_LEVELING_FEATURE)
// 1710           if (DEBUGGING(LEVELING)) {
// 1711             SERIAL_ECHOLNPGM("*** Z HOMED WITH PROBE (Z_MIN_PROBE_USES_Z_MIN_ENDSTOP_PIN) ***");
// 1712             SERIAL_ECHOLNPAIR("> zprobe_zoffset = ", zprobe_zoffset);
// 1713           }
// 1714         #endif
// 1715 
// 1716       #elif ENABLED(DEBUG_LEVELING_FEATURE)
// 1717 
// 1718         if (DEBUGGING(LEVELING)) SERIAL_ECHOLNPGM("*** Z HOMED TO ENDSTOP (Z_MIN_PROBE_ENDSTOP) ***");
// 1719 
// 1720       #endif
// 1721     }
// 1722   #endif
// 1723 
// 1724   #if ENABLED(DEBUG_LEVELING_FEATURE)
// 1725     if (DEBUGGING(LEVELING)) {
// 1726       #if HAS_HOME_OFFSET
// 1727         SERIAL_ECHOPAIR("> home_offset[", axis_codes[axis]);
// 1728         SERIAL_ECHOLNPAIR("] = ", home_offset[axis]);
// 1729       #endif
// 1730       DEBUG_POS("", current_position);
// 1731       SERIAL_ECHOPAIR("<<< set_axis_is_at_home(", axis_codes[axis]);
// 1732       SERIAL_CHAR(')');
// 1733       SERIAL_EOL();
// 1734     }
// 1735   #endif
// 1736 
// 1737   #if ENABLED(I2C_POSITION_ENCODERS)
// 1738     I2CPEM.homed(axis);
// 1739   #endif
// 1740 }
        POP      {R4-R6,PC}       ;; return
          CFI EndBlock cfiBlock24
// 1741 
// 1742 /**
// 1743  * Some planner shorthand inline functions
// 1744  */
// 1745 inline float get_homing_bump_feedrate(const AxisEnum axis) {
// 1746   //static const uint8_t homing_bump_divisor[] PROGMEM = HOMING_BUMP_DIVISOR;
// 1747 	int  homing_bump_divisor[4];
// 1748 		homing_bump_divisor[0] = 2;
// 1749 		homing_bump_divisor[1] = 2;
// 1750 		homing_bump_divisor[2] = 4;
// 1751   uint8_t hbd = pgm_read_byte(&homing_bump_divisor[axis]);
// 1752   if (hbd < 1) {
// 1753     hbd = 10;
// 1754     SERIAL_ECHO_START();
// 1755     SERIAL_ECHOLNPGM("Warning: Homing Bump Divisor < 1");
// 1756   }
// 1757   //return homing_feedrate(axis) / hbd;
// 1758   return homing_feedrate_mm_s[axis] / hbd;
// 1759 }
// 1760 
// 1761 /**
// 1762  * Move the planner to the current position from wherever it last moved
// 1763  * (or from wherever it has been told it is located).
// 1764  */
// 1765 inline void buffer_line_to_current_position() {
// 1766   planner.buffer_line(current_position[X_AXIS], current_position[Y_AXIS], current_position[Z_AXIS], current_position[E_AXIS], feedrate_mm_s, active_extruder);
// 1767 }
// 1768 
// 1769 /**
// 1770  * Move the planner to the position stored in the destination array, which is
// 1771  * used by G0/G1/G2/G3/G5 and many other functions to set a destination.
// 1772  */
// 1773 inline void buffer_line_to_destination(const float fr_mm_s) {
// 1774   planner.buffer_line(destination[X_AXIS], destination[Y_AXIS], destination[Z_AXIS], destination[E_AXIS], fr_mm_s, active_extruder);
// 1775 }
// 1776 
// 1777 #if IS_KINEMATIC
// 1778   /**
// 1779    * Calculate delta, start a line, and set current_position to destination
// 1780    */
// 1781   void prepare_uninterpolated_move_to_destination(const float fr_mm_s=0.0) {
// 1782     #if ENABLED(DEBUG_LEVELING_FEATURE)
// 1783       if (DEBUGGING(LEVELING)) DEBUG_POS("prepare_uninterpolated_move_to_destination", destination);
// 1784     #endif
// 1785 
// 1786     refresh_cmd_timeout();
// 1787 
// 1788     #if UBL_SEGMENTED
// 1789       // ubl segmented line will do z-only moves in single segment
// 1790       ubl.prepare_segmented_line_to(destination, MMS_SCALED(fr_mm_s ? fr_mm_s : feedrate_mm_s));
// 1791     #else
// 1792       if ( current_position[X_AXIS] == destination[X_AXIS]
// 1793         && current_position[Y_AXIS] == destination[Y_AXIS]
// 1794         && current_position[Z_AXIS] == destination[Z_AXIS]
// 1795         && current_position[E_AXIS] == destination[E_AXIS]
// 1796       ) return;
// 1797 
// 1798       planner.buffer_line_kinematic(destination, MMS_SCALED(fr_mm_s ? fr_mm_s : feedrate_mm_s), active_extruder);
// 1799     #endif
// 1800 
// 1801     set_current_from_destination();
// 1802   }
// 1803 #endif // IS_KINEMATIC
// 1804 
// 1805 /**
// 1806  *  Plan a move to (X, Y, Z) and set the current_position
// 1807  *  The final current_position may not be the one that was requested
// 1808  */

        SECTION `.text`:CODE:NOROOT(1)
          CFI Block cfiBlock25 Using cfiCommon0
          CFI Function _Z19do_blocking_move_toRKfS0_S0_S0_
        THUMB
// 1809 void do_blocking_move_to(const float &rx, const float &ry, const float &rz, const float &fr_mm_s/*=0.0*/) {
_Z19do_blocking_move_toRKfS0_S0_S0_:
        PUSH     {R4-R8,LR}
          CFI R14 Frame(CFA, -4)
          CFI R8 Frame(CFA, -8)
          CFI R7 Frame(CFA, -12)
          CFI R6 Frame(CFA, -16)
          CFI R5 Frame(CFA, -20)
          CFI R4 Frame(CFA, -24)
          CFI CFA R13+24
        VPUSH    {D8}
          CFI D8 Frame(CFA, -32)
          CFI CFA R13+32
        MOV      R6,R0
        MOV      R7,R1
        MOV      R4,R2
        MOV      R8,R3
// 1810   const float old_feedrate_mm_s = feedrate_mm_s;
        LDR.W    R5,??DataTable107
        VLDR     S16,[R5, #+120]
// 1811 
// 1812   #if ENABLED(DEBUG_LEVELING_FEATURE)
// 1813     if (DEBUGGING(LEVELING)) print_xyz(PSTR(">>> do_blocking_move_to"), NULL, LOGICAL_X_POSITION(rx), LOGICAL_Y_POSITION(ry), LOGICAL_Z_POSITION(rz));
// 1814   #endif
// 1815 
// 1816   const float z_feedrate = fr_mm_s ? fr_mm_s : homing_feedrate_mm_s[Z_AXIS];
        VLDR     S17,[R8, #0]
        VCMP.F32 S17,#0.0
        FMSTAT   
        BNE.N    ??do_blocking_move_to_0
        VLDR     S17,[R5, #+76]
// 1817 
// 1818   #if ENABLED(DELTA)
// 1819     if (!position_is_reachable(rx, ry)) return;
// 1820 
// 1821     feedrate_mm_s = fr_mm_s ? fr_mm_s : XY_PROBE_FEEDRATE_MM_S;
// 1822 
// 1823     set_destination_from_current();          // sync destination at the start
// 1824 
// 1825     #if ENABLED(DEBUG_LEVELING_FEATURE)
// 1826       if (DEBUGGING(LEVELING)) DEBUG_POS("set_destination_from_current", destination);
// 1827     #endif
// 1828 
// 1829     // when in the danger zone
// 1830     if (current_position[Z_AXIS] > delta_clip_start_height) {
// 1831       if (rz > delta_clip_start_height) {   // staying in the danger zone
// 1832         destination[X_AXIS] = rx;           // move directly (uninterpolated)
// 1833         destination[Y_AXIS] = ry;
// 1834         destination[Z_AXIS] = rz;
// 1835         prepare_uninterpolated_move_to_destination(); // set_current_from_destination
// 1836         #if ENABLED(DEBUG_LEVELING_FEATURE)
// 1837           if (DEBUGGING(LEVELING)) DEBUG_POS("danger zone move", current_position);
// 1838         #endif
// 1839         return;
// 1840       }
// 1841       destination[Z_AXIS] = delta_clip_start_height;
// 1842       prepare_uninterpolated_move_to_destination(); // set_current_from_destination
// 1843       #if ENABLED(DEBUG_LEVELING_FEATURE)
// 1844         if (DEBUGGING(LEVELING)) DEBUG_POS("zone border move", current_position);
// 1845       #endif
// 1846     }
// 1847 
// 1848     if (rz > current_position[Z_AXIS]) {    // raising?
// 1849       destination[Z_AXIS] = rz;
// 1850       prepare_uninterpolated_move_to_destination(z_feedrate);   // set_current_from_destination
// 1851       #if ENABLED(DEBUG_LEVELING_FEATURE)
// 1852         if (DEBUGGING(LEVELING)) DEBUG_POS("z raise move", current_position);
// 1853       #endif
// 1854     }
// 1855 
// 1856     destination[X_AXIS] = rx;
// 1857     destination[Y_AXIS] = ry;
// 1858     prepare_move_to_destination();         // set_current_from_destination
// 1859     #if ENABLED(DEBUG_LEVELING_FEATURE)
// 1860       if (DEBUGGING(LEVELING)) DEBUG_POS("xy move", current_position);
// 1861     #endif
// 1862 
// 1863     if (rz < current_position[Z_AXIS]) {    // lowering?
// 1864       destination[Z_AXIS] = rz;
// 1865       prepare_uninterpolated_move_to_destination(z_feedrate);   // set_current_from_destination
// 1866       #if ENABLED(DEBUG_LEVELING_FEATURE)
// 1867         if (DEBUGGING(LEVELING)) DEBUG_POS("z lower move", current_position);
// 1868       #endif
// 1869     }
// 1870 
// 1871   #elif IS_SCARA
// 1872 
// 1873     if (!position_is_reachable(rx, ry)) return;
// 1874 
// 1875     set_destination_from_current();
// 1876 
// 1877     // If Z needs to raise, do it before moving XY
// 1878     if (destination[Z_AXIS] < rz) {
// 1879       destination[Z_AXIS] = rz;
// 1880       prepare_uninterpolated_move_to_destination(z_feedrate);
// 1881     }
// 1882 
// 1883     destination[X_AXIS] = rx;
// 1884     destination[Y_AXIS] = ry;
// 1885     prepare_uninterpolated_move_to_destination(fr_mm_s ? fr_mm_s : XY_PROBE_FEEDRATE_MM_S);
// 1886 
// 1887     // If Z needs to lower, do it after moving XY
// 1888     if (destination[Z_AXIS] > rz) {
// 1889       destination[Z_AXIS] = rz;
// 1890       prepare_uninterpolated_move_to_destination(z_feedrate);
// 1891     }
// 1892 
// 1893   #else
// 1894 
// 1895     // If Z needs to raise, do it before moving XY
// 1896     if (current_position[Z_AXIS] < rz) {
??do_blocking_move_to_0:
        VLDR     S0,[R5, #+44]
        VLDR     S1,[R4, #0]
        VCMP.F32 S0,S1
        FMSTAT   
        BPL.N    ??do_blocking_move_to_1
// 1897       feedrate_mm_s = z_feedrate;
        VSTR     S17,[R5, #+120]
// 1898       current_position[Z_AXIS] = rz;
        LDR      R0,[R4, #+0]
        STR      R0,[R5, #+44]
// 1899       buffer_line_to_current_position();
          CFI FunCall _Z31buffer_line_to_current_positionv
        BL       _Z31buffer_line_to_current_positionv
// 1900     }
// 1901 
// 1902     feedrate_mm_s = fr_mm_s ? fr_mm_s : XY_PROBE_FEEDRATE_MM_S;
??do_blocking_move_to_1:
        VLDR     S0,[R8, #0]
        VCMP.F32 S0,#0.0
        FMSTAT   
        BEQ.N    ??do_blocking_move_to_2
        VSTR     S0,[R5, #+120]
        B.N      ??do_blocking_move_to_3
??do_blocking_move_to_2:
        LDR.W    R0,??DataTable111_2  ;; 0x43055555
        STR      R0,[R5, #+120]
// 1903     current_position[X_AXIS] = rx;
??do_blocking_move_to_3:
        LDR      R0,[R6, #+0]
        STR      R0,[R5, #+36]
// 1904     current_position[Y_AXIS] = ry;
        LDR      R0,[R7, #+0]
        STR      R0,[R5, #+40]
// 1905     buffer_line_to_current_position();
          CFI FunCall _Z31buffer_line_to_current_positionv
        BL       _Z31buffer_line_to_current_positionv
// 1906 
// 1907     // If Z needs to lower, do it after moving XY
// 1908     if (current_position[Z_AXIS] > rz) {
        VLDR     S0,[R4, #0]
        VLDR     S1,[R5, #+44]
        VCMP.F32 S0,S1
        FMSTAT   
        BPL.N    ??do_blocking_move_to_4
// 1909       feedrate_mm_s = z_feedrate;
        VSTR     S17,[R5, #+120]
// 1910       current_position[Z_AXIS] = rz;
        LDR      R0,[R4, #+0]
        STR      R0,[R5, #+44]
// 1911       buffer_line_to_current_position();
          CFI FunCall _Z31buffer_line_to_current_positionv
        BL       _Z31buffer_line_to_current_positionv
// 1912     }
// 1913 
// 1914   #endif
// 1915 
// 1916   stepper.synchronize();
??do_blocking_move_to_4:
          CFI FunCall _ZN7Stepper11synchronizeEv
        BL       _ZN7Stepper11synchronizeEv
// 1917 
// 1918   feedrate_mm_s = old_feedrate_mm_s;
        VSTR     S16,[R5, #+120]
// 1919 
// 1920   #if ENABLED(DEBUG_LEVELING_FEATURE)
// 1921     if (DEBUGGING(LEVELING)) SERIAL_ECHOLNPGM("<<< do_blocking_move_to");
// 1922   #endif
// 1923 }
        VPOP     {D8}
          CFI D8 SameValue
          CFI CFA R13+24
        POP      {R4-R8,PC}       ;; return
          CFI EndBlock cfiBlock25

        SECTION `.text`:CODE:NOROOT(2)
        SECTION_TYPE SHT_PROGBITS, 0
        DATA
??DataTable88:
        DC32     0x43480000
// 1924 

        SECTION `.text`:CODE:NOROOT(1)
          CFI Block cfiBlock26 Using cfiCommon0
          CFI Function _Z26do_blocking_move_to_nowaitRKfS0_S0_S0_
        THUMB
// 1925 void do_blocking_move_to_nowait(const float &rx, const float &ry, const float &rz, const float &fr_mm_s/*=0.0*/) {
_Z26do_blocking_move_to_nowaitRKfS0_S0_S0_:
        PUSH     {R4-R8,LR}
          CFI R14 Frame(CFA, -4)
          CFI R8 Frame(CFA, -8)
          CFI R7 Frame(CFA, -12)
          CFI R6 Frame(CFA, -16)
          CFI R5 Frame(CFA, -20)
          CFI R4 Frame(CFA, -24)
          CFI CFA R13+24
        VPUSH    {D8}
          CFI D8 Frame(CFA, -32)
          CFI CFA R13+32
        MOV      R6,R0
        MOV      R7,R1
        MOV      R4,R2
        MOV      R8,R3
// 1926   const float old_feedrate_mm_s = feedrate_mm_s;
        LDR.W    R5,??DataTable107
        VLDR     S16,[R5, #+120]
// 1927 
// 1928   #if ENABLED(DEBUG_LEVELING_FEATURE)
// 1929     if (DEBUGGING(LEVELING)) print_xyz(PSTR(">>> do_blocking_move_to"), NULL, LOGICAL_X_POSITION(rx), LOGICAL_Y_POSITION(ry), LOGICAL_Z_POSITION(rz));
// 1930   #endif
// 1931 
// 1932   const float z_feedrate = fr_mm_s ? fr_mm_s : homing_feedrate_mm_s[Z_AXIS];
        VLDR     S17,[R8, #0]
        VCMP.F32 S17,#0.0
        FMSTAT   
        BNE.N    ??do_blocking_move_to_nowait_0
        VLDR     S17,[R5, #+76]
// 1933 
// 1934   #if ENABLED(DELTA)
// 1935     if (!position_is_reachable(rx, ry)) return;
// 1936 
// 1937     feedrate_mm_s = fr_mm_s ? fr_mm_s : XY_PROBE_FEEDRATE_MM_S;
// 1938 
// 1939     set_destination_from_current();          // sync destination at the start
// 1940 
// 1941     #if ENABLED(DEBUG_LEVELING_FEATURE)
// 1942       if (DEBUGGING(LEVELING)) DEBUG_POS("set_destination_from_current", destination);
// 1943     #endif
// 1944 
// 1945     // when in the danger zone
// 1946     if (current_position[Z_AXIS] > delta_clip_start_height) {
// 1947       if (rz > delta_clip_start_height) {   // staying in the danger zone
// 1948         destination[X_AXIS] = rx;           // move directly (uninterpolated)
// 1949         destination[Y_AXIS] = ry;
// 1950         destination[Z_AXIS] = rz;
// 1951         prepare_uninterpolated_move_to_destination(); // set_current_from_destination
// 1952         #if ENABLED(DEBUG_LEVELING_FEATURE)
// 1953           if (DEBUGGING(LEVELING)) DEBUG_POS("danger zone move", current_position);
// 1954         #endif
// 1955         return;
// 1956       }
// 1957       destination[Z_AXIS] = delta_clip_start_height;
// 1958       prepare_uninterpolated_move_to_destination(); // set_current_from_destination
// 1959       #if ENABLED(DEBUG_LEVELING_FEATURE)
// 1960         if (DEBUGGING(LEVELING)) DEBUG_POS("zone border move", current_position);
// 1961       #endif
// 1962     }
// 1963 
// 1964     if (rz > current_position[Z_AXIS]) {    // raising?
// 1965       destination[Z_AXIS] = rz;
// 1966       prepare_uninterpolated_move_to_destination(z_feedrate);   // set_current_from_destination
// 1967       #if ENABLED(DEBUG_LEVELING_FEATURE)
// 1968         if (DEBUGGING(LEVELING)) DEBUG_POS("z raise move", current_position);
// 1969       #endif
// 1970     }
// 1971 
// 1972     destination[X_AXIS] = rx;
// 1973     destination[Y_AXIS] = ry;
// 1974     prepare_move_to_destination();         // set_current_from_destination
// 1975     #if ENABLED(DEBUG_LEVELING_FEATURE)
// 1976       if (DEBUGGING(LEVELING)) DEBUG_POS("xy move", current_position);
// 1977     #endif
// 1978 
// 1979     if (rz < current_position[Z_AXIS]) {    // lowering?
// 1980       destination[Z_AXIS] = rz;
// 1981       prepare_uninterpolated_move_to_destination(z_feedrate);   // set_current_from_destination
// 1982       #if ENABLED(DEBUG_LEVELING_FEATURE)
// 1983         if (DEBUGGING(LEVELING)) DEBUG_POS("z lower move", current_position);
// 1984       #endif
// 1985     }
// 1986 
// 1987   #elif IS_SCARA
// 1988 
// 1989     if (!position_is_reachable(rx, ry)) return;
// 1990 
// 1991     set_destination_from_current();
// 1992 
// 1993     // If Z needs to raise, do it before moving XY
// 1994     if (destination[Z_AXIS] < rz) {
// 1995       destination[Z_AXIS] = rz;
// 1996       prepare_uninterpolated_move_to_destination(z_feedrate);
// 1997     }
// 1998 
// 1999     destination[X_AXIS] = rx;
// 2000     destination[Y_AXIS] = ry;
// 2001     prepare_uninterpolated_move_to_destination(fr_mm_s ? fr_mm_s : XY_PROBE_FEEDRATE_MM_S);
// 2002 
// 2003     // If Z needs to lower, do it after moving XY
// 2004     if (destination[Z_AXIS] > rz) {
// 2005       destination[Z_AXIS] = rz;
// 2006       prepare_uninterpolated_move_to_destination(z_feedrate);
// 2007     }
// 2008 
// 2009   #else
// 2010 
// 2011     // If Z needs to raise, do it before moving XY
// 2012     if (current_position[Z_AXIS] < rz) {
??do_blocking_move_to_nowait_0:
        VLDR     S0,[R5, #+44]
        VLDR     S1,[R4, #0]
        VCMP.F32 S0,S1
        FMSTAT   
        BPL.N    ??do_blocking_move_to_nowait_1
// 2013       feedrate_mm_s = z_feedrate;
        VSTR     S17,[R5, #+120]
// 2014       current_position[Z_AXIS] = rz;
        LDR      R0,[R4, #+0]
        STR      R0,[R5, #+44]
// 2015       buffer_line_to_current_position();
          CFI FunCall _Z31buffer_line_to_current_positionv
        BL       _Z31buffer_line_to_current_positionv
// 2016     }
// 2017 
// 2018     feedrate_mm_s = fr_mm_s ? fr_mm_s : XY_PROBE_FEEDRATE_MM_S;
??do_blocking_move_to_nowait_1:
        VLDR     S0,[R8, #0]
        VCMP.F32 S0,#0.0
        FMSTAT   
        BEQ.N    ??do_blocking_move_to_nowait_2
        VSTR     S0,[R5, #+120]
        B.N      ??do_blocking_move_to_nowait_3
??do_blocking_move_to_nowait_2:
        LDR.W    R0,??DataTable111_2  ;; 0x43055555
        STR      R0,[R5, #+120]
// 2019     current_position[X_AXIS] = rx;
??do_blocking_move_to_nowait_3:
        LDR      R0,[R6, #+0]
        STR      R0,[R5, #+36]
// 2020     current_position[Y_AXIS] = ry;
        LDR      R0,[R7, #+0]
        STR      R0,[R5, #+40]
// 2021     buffer_line_to_current_position();
          CFI FunCall _Z31buffer_line_to_current_positionv
        BL       _Z31buffer_line_to_current_positionv
// 2022 
// 2023     // If Z needs to lower, do it after moving XY
// 2024     if (current_position[Z_AXIS] > rz) {
        VLDR     S0,[R4, #0]
        VLDR     S1,[R5, #+44]
        VCMP.F32 S0,S1
        FMSTAT   
        BPL.N    ??do_blocking_move_to_nowait_4
// 2025       feedrate_mm_s = z_feedrate;
        VSTR     S17,[R5, #+120]
// 2026       current_position[Z_AXIS] = rz;
        LDR      R0,[R4, #+0]
        STR      R0,[R5, #+44]
// 2027       buffer_line_to_current_position();
          CFI FunCall _Z31buffer_line_to_current_positionv
        BL       _Z31buffer_line_to_current_positionv
// 2028     }
// 2029 
// 2030   #endif
// 2031 
// 2032 //  stepper.synchronize();
// 2033 
// 2034   feedrate_mm_s = old_feedrate_mm_s;
??do_blocking_move_to_nowait_4:
        VSTR     S16,[R5, #+120]
// 2035 
// 2036   #if ENABLED(DEBUG_LEVELING_FEATURE)
// 2037     if (DEBUGGING(LEVELING)) SERIAL_ECHOLNPGM("<<< do_blocking_move_to");
// 2038   #endif
// 2039 }
        VPOP     {D8}
          CFI D8 SameValue
          CFI CFA R13+24
        POP      {R4-R8,PC}       ;; return
          CFI EndBlock cfiBlock26
// 2040 
// 2041 

        SECTION `.text`:CODE:NOROOT(1)
          CFI Block cfiBlock27 Using cfiCommon0
          CFI Function _Z21do_blocking_move_to_xRKfS0_
        THUMB
// 2042 void do_blocking_move_to_x(const float &rx, const float &fr_mm_s/*=0.0*/) {
_Z21do_blocking_move_to_xRKfS0_:
        PUSH     {R3,R4}
          CFI R4 Frame(CFA, -4)
          CFI CFA R13+8
// 2043   do_blocking_move_to(rx, current_position[Y_AXIS], current_position[Z_AXIS], fr_mm_s);
        LDR.W    R4,??DataTable111_1
        MOV      R3,R1
        ADD      R2,R4,#+44
        ADD      R1,R4,#+40
        ADD      SP,SP,#+4
          CFI CFA R13+4
        POP      {R4}
          CFI R4 SameValue
          CFI CFA R13+0
          CFI FunCall _Z19do_blocking_move_toRKfS0_S0_S0_
        B.N      _Z19do_blocking_move_toRKfS0_S0_S0_
          CFI EndBlock cfiBlock27
// 2044 }

        SECTION `.text`:CODE:NOROOT(1)
          CFI Block cfiBlock28 Using cfiCommon0
          CFI Function _Z21do_blocking_move_to_zRKfS0_
        THUMB
// 2045 void do_blocking_move_to_z(const float &rz, const float &fr_mm_s/*=0.0*/) {
_Z21do_blocking_move_to_zRKfS0_:
        PUSH     {R3,R4}
          CFI R4 Frame(CFA, -4)
          CFI CFA R13+8
// 2046   do_blocking_move_to(current_position[X_AXIS], current_position[Y_AXIS], rz, fr_mm_s);
        LDR.W    R4,??DataTable111_1
        MOV      R3,R1
        MOV      R2,R0
        ADD      R1,R4,#+40
        ADD      R0,R4,#+36
        ADD      SP,SP,#+4
          CFI CFA R13+4
        POP      {R4}
          CFI R4 SameValue
          CFI CFA R13+0
          CFI FunCall _Z19do_blocking_move_toRKfS0_S0_S0_
        B.N      _Z19do_blocking_move_toRKfS0_S0_S0_
          CFI EndBlock cfiBlock28
// 2047 }

        SECTION `.text`:CODE:NOROOT(1)
          CFI Block cfiBlock29 Using cfiCommon0
          CFI Function _Z28do_blocking_move_to_z_nowaitRKfS0_
        THUMB
// 2048 void do_blocking_move_to_z_nowait(const float &rz, const float &fr_mm_s/*=0.0*/) {
_Z28do_blocking_move_to_z_nowaitRKfS0_:
        PUSH     {R3,R4}
          CFI R4 Frame(CFA, -4)
          CFI CFA R13+8
// 2049   do_blocking_move_to_nowait(current_position[X_AXIS], current_position[Y_AXIS], rz, fr_mm_s);
        LDR.W    R4,??DataTable111_1
        MOV      R3,R1
        MOV      R2,R0
        ADD      R1,R4,#+40
        ADD      R0,R4,#+36
        ADD      SP,SP,#+4
          CFI CFA R13+4
        POP      {R4}
          CFI R4 SameValue
          CFI CFA R13+0
          CFI FunCall _Z26do_blocking_move_to_nowaitRKfS0_S0_S0_
        B.N      _Z26do_blocking_move_to_nowaitRKfS0_S0_S0_
          CFI EndBlock cfiBlock29
// 2050 }
// 2051 

        SECTION `.text`:CODE:NOROOT(1)
          CFI Block cfiBlock30 Using cfiCommon0
          CFI Function _Z22do_blocking_move_to_xyRKfS0_S0_
        THUMB
// 2052 void do_blocking_move_to_xy(const float &rx, const float &ry, const float &fr_mm_s/*=0.0*/) {
// 2053   do_blocking_move_to(rx, ry, current_position[Z_AXIS], fr_mm_s);
_Z22do_blocking_move_to_xyRKfS0_S0_:
        MOV      R3,R2
        LDR.W    R2,??DataTable111_4
          CFI FunCall _Z19do_blocking_move_toRKfS0_S0_S0_
        B.N      _Z19do_blocking_move_toRKfS0_S0_S0_
          CFI EndBlock cfiBlock30
// 2054 }
// 2055 
// 2056 //
// 2057 // Prepare to do endstop or probe moves
// 2058 // with custom feedrates.
// 2059 //
// 2060 //  - Save current feedrates
// 2061 //  - Reset the rate multiplier
// 2062 //  - Reset the command timeout
// 2063 //  - Enable the endstops (for endstop moves)
// 2064 //

        SECTION `.text`:CODE:NOROOT(1)
          CFI Block cfiBlock31 Using cfiCommon0
          CFI Function _Z31setup_for_endstop_or_probe_movev
        THUMB
// 2065 static void setup_for_endstop_or_probe_move() {
// 2066   #if ENABLED(DEBUG_LEVELING_FEATURE)
// 2067     if (DEBUGGING(LEVELING)) DEBUG_POS("setup_for_endstop_or_probe_move", current_position);
// 2068   #endif
// 2069   saved_feedrate_mm_s = feedrate_mm_s;
_Z31setup_for_endstop_or_probe_movev:
        LDR.W    R0,??DataTable107
        LDR      R1,[R0, #+120]
        STR      R1,[R0, #+124]
// 2070   saved_feedrate_percentage = feedrate_percentage;
        LDRH     R1,[R0, #+32]
        STRH     R1,[R0, #+34]
// 2071   feedrate_percentage = 100;
        MOVS     R1,#+100
        STRH     R1,[R0, #+32]
// 2072   refresh_cmd_timeout();
          CFI FunCall _Z19refresh_cmd_timeoutv
        B.W      _Z19refresh_cmd_timeoutv
          CFI EndBlock cfiBlock31
// 2073 }
// 2074 

        SECTION `.text`:CODE:NOROOT(1)
          CFI Block cfiBlock32 Using cfiCommon0
          CFI Function _Z36clean_up_after_endstop_or_probe_movev
        THUMB
// 2075 static void clean_up_after_endstop_or_probe_move() {
// 2076   #if ENABLED(DEBUG_LEVELING_FEATURE)
// 2077     if (DEBUGGING(LEVELING)) DEBUG_POS("clean_up_after_endstop_or_probe_move", current_position);
// 2078   #endif
// 2079   feedrate_mm_s = saved_feedrate_mm_s;
_Z36clean_up_after_endstop_or_probe_movev:
        LDR.W    R0,??DataTable107
        LDR      R1,[R0, #+124]
        STR      R1,[R0, #+120]
// 2080   feedrate_percentage = saved_feedrate_percentage;
        LDRH     R1,[R0, #+34]
        STRH     R1,[R0, #+32]
// 2081   refresh_cmd_timeout();
          CFI FunCall _Z19refresh_cmd_timeoutv
        B.W      _Z19refresh_cmd_timeoutv
          CFI EndBlock cfiBlock32
// 2082 }
// 2083 
// 2084 #if HAS_BED_PROBE
// 2085   /**
// 2086    * Raise Z to a minimum height to make room for a probe to move
// 2087    */
// 2088   inline void do_probe_raise(const float z_raise) {
// 2089     #if ENABLED(DEBUG_LEVELING_FEATURE)
// 2090       if (DEBUGGING(LEVELING)) {
// 2091         SERIAL_ECHOPAIR("do_probe_raise(", z_raise);
// 2092         SERIAL_CHAR(')');
// 2093         SERIAL_EOL();
// 2094       }
// 2095     #endif
// 2096 
// 2097     float z_dest = z_raise;
// 2098     if (zprobe_zoffset < 0) z_dest -= zprobe_zoffset;
// 2099 
// 2100     if (z_dest > current_position[Z_AXIS])
// 2101       do_blocking_move_to_z(z_dest);
// 2102   }
// 2103 
// 2104 #endif // HAS_BED_PROBE
// 2105 
// 2106 #if HAS_AXIS_UNHOMED_ERR
// 2107 #if defined(MKS_DLP_BOARD)

        SECTION `.text`:CODE:NOROOT(1)
          CFI Block cfiBlock33 Using cfiCommon0
          CFI Function _Z18axis_unhomed_errorb
        THUMB
// 2108   bool axis_unhomed_error(const bool z/*=true*/) {
_Z18axis_unhomed_errorb:
        PUSH     {R4,LR}
          CFI R14 Frame(CFA, -4)
          CFI R4 Frame(CFA, -8)
          CFI CFA R13+8
// 2109     #if ENABLED(HOME_AFTER_DEACTIVATE)
// 2110       const bool zz = z && !axis_known_position[Z_AXIS];
// 2111     #else
// 2112       const bool zz = z && !axis_homed[Z_AXIS];
        CMP      R0,#+0
        BEQ.N    ??axis_unhomed_error_0
        LDR.W    R0,??DataTable107
        LDRB     R0,[R0, #+6]
        EOR      R4,R0,#0x1
        B.N      ??axis_unhomed_error_1
??axis_unhomed_error_0:
        MOVS     R4,#+0
// 2113     #endif
// 2114     if (zz) {
??axis_unhomed_error_1:
        CMP      R4,#+0
        BEQ.N    ??axis_unhomed_error_2
// 2115       SERIAL_ECHO_START();
        LDR.W    R0,??DataTable107_2
          CFI FunCall _Z14serialprintPGMPKc
        BL       _Z14serialprintPGMPKc
// 2116       SERIAL_ECHOPGM(MSG_HOME " ");
        ADR.W    R0,`?<Constant "Home ">`
          CFI FunCall _Z14serialprintPGMPKc
        BL       _Z14serialprintPGMPKc
// 2117       if (zz) SERIAL_ECHOPGM(MSG_Z);
        CMP      R4,#+0
        BEQ.N    ??axis_unhomed_error_3
        ADR.N    R0,??DataTable103  ;; "Z"
          CFI FunCall _Z14serialprintPGMPKc
        BL       _Z14serialprintPGMPKc
// 2118       SERIAL_ECHOLNPGM(" " MSG_FIRST);
??axis_unhomed_error_3:
        ADR.W    R0,`?<Constant " first\\n">`
          CFI FunCall _Z14serialprintPGMPKc
        BL       _Z14serialprintPGMPKc
// 2119 
// 2120       #if ENABLED(ULTRA_LCD)
// 2121         lcd_status_printf_P(0, PSTR(MSG_HOME " %s%s%s " MSG_FIRST), xx ? MSG_X : "", yy ? MSG_Y : "", zz ? MSG_Z : "");
// 2122       #endif
// 2123       return true;
        MOVS     R0,#+1
        POP      {R4,PC}
// 2124     }
// 2125     return false;
??axis_unhomed_error_2:
        MOVS     R0,#+0
        POP      {R4,PC}          ;; return
          CFI EndBlock cfiBlock33
// 2126   }

        SECTION `.text`:CODE:NOROOT(2)
        SECTION_TYPE SHT_PROGBITS, 0
        DATA
`?<Constant "Home ">`:
        DC8 "Home "
        DC8 0, 0

        SECTION `.text`:CODE:NOROOT(2)
        SECTION_TYPE SHT_PROGBITS, 0
        DATA
`?<Constant " first\\n">`:
        DC8 " first\012"
// 2127 #else
// 2128 bool axis_unhomed_error(const bool x/*=true*/, const bool y/*=true*/, const bool z/*=true*/) {
// 2129   #if ENABLED(HOME_AFTER_DEACTIVATE)
// 2130 	const bool xx = x && !axis_known_position[X_AXIS],
// 2131 			   yy = y && !axis_known_position[Y_AXIS],
// 2132 			   zz = z && !axis_known_position[Z_AXIS];
// 2133   #else
// 2134 	const bool xx = x && !axis_homed[X_AXIS],
// 2135 			   yy = y && !axis_homed[Y_AXIS],
// 2136 			   zz = z && !axis_homed[Z_AXIS];
// 2137   #endif
// 2138   if (xx || yy || zz) {
// 2139 	SERIAL_ECHO_START();
// 2140 	SERIAL_ECHOPGM(MSG_HOME " ");
// 2141 	if (xx) SERIAL_ECHOPGM(MSG_X);
// 2142 	if (yy) SERIAL_ECHOPGM(MSG_Y);
// 2143 	if (zz) SERIAL_ECHOPGM(MSG_Z);
// 2144 	SERIAL_ECHOLNPGM(" " MSG_FIRST);
// 2145 
// 2146 	#if ENABLED(ULTRA_LCD)
// 2147 	  lcd_status_printf_P(0, PSTR(MSG_HOME " %s%s%s " MSG_FIRST), xx ? MSG_X : "", yy ? MSG_Y : "", zz ? MSG_Z : "");
// 2148 	#endif
// 2149 	return true;
// 2150   }
// 2151   return false;
// 2152 }
// 2153 
// 2154 #endif
// 2155 #endif // HAS_AXIS_UNHOMED_ERR
// 2156 
// 2157 #if ENABLED(Z_PROBE_SLED)
// 2158 
// 2159   #ifndef SLED_DOCKING_OFFSET
// 2160     #define SLED_DOCKING_OFFSET 0
// 2161   #endif
// 2162 
// 2163   /**
// 2164    * Method to dock/undock a sled designed by Charles Bell.
// 2165    *
// 2166    * stow[in]     If false, move to MAX_X and engage the solenoid
// 2167    *              If true, move to MAX_X and release the solenoid
// 2168    */
// 2169   static void dock_sled(bool stow) {
// 2170     #if ENABLED(DEBUG_LEVELING_FEATURE)
// 2171       if (DEBUGGING(LEVELING)) {
// 2172         SERIAL_ECHOPAIR("dock_sled(", stow);
// 2173         SERIAL_CHAR(')');
// 2174         SERIAL_EOL();
// 2175       }
// 2176     #endif
// 2177 
// 2178     // Dock sled a bit closer to ensure proper capturing
// 2179     do_blocking_move_to_x(X_MAX_POS + SLED_DOCKING_OFFSET - ((stow) ? 1 : 0));
// 2180 
// 2181     #if HAS_SOLENOID_1 && DISABLED(EXT_SOLENOID)
// 2182       WRITE(SOL1_PIN, !stow); // switch solenoid
// 2183     #endif
// 2184   }
// 2185 
// 2186 #elif ENABLED(Z_PROBE_ALLEN_KEY)
// 2187 
// 2188   FORCE_INLINE void do_blocking_move_to(const float (&raw)[XYZ], const float &fr_mm_s) {
// 2189     do_blocking_move_to(raw[X_AXIS], raw[Y_AXIS], raw[Z_AXIS], fr_mm_s);
// 2190   }
// 2191 
// 2192   void run_deploy_moves_script() {
// 2193     #if defined(Z_PROBE_ALLEN_KEY_DEPLOY_1_X) || defined(Z_PROBE_ALLEN_KEY_DEPLOY_1_Y) || defined(Z_PROBE_ALLEN_KEY_DEPLOY_1_Z)
// 2194       #ifndef Z_PROBE_ALLEN_KEY_DEPLOY_1_X
// 2195         #define Z_PROBE_ALLEN_KEY_DEPLOY_1_X current_position[X_AXIS]
// 2196       #endif
// 2197       #ifndef Z_PROBE_ALLEN_KEY_DEPLOY_1_Y
// 2198         #define Z_PROBE_ALLEN_KEY_DEPLOY_1_Y current_position[Y_AXIS]
// 2199       #endif
// 2200       #ifndef Z_PROBE_ALLEN_KEY_DEPLOY_1_Z
// 2201         #define Z_PROBE_ALLEN_KEY_DEPLOY_1_Z current_position[Z_AXIS]
// 2202       #endif
// 2203       #ifndef Z_PROBE_ALLEN_KEY_DEPLOY_1_FEEDRATE
// 2204         #define Z_PROBE_ALLEN_KEY_DEPLOY_1_FEEDRATE 0.0
// 2205       #endif
// 2206       const float deploy_1[] = { Z_PROBE_ALLEN_KEY_DEPLOY_1_X, Z_PROBE_ALLEN_KEY_DEPLOY_1_Y, Z_PROBE_ALLEN_KEY_DEPLOY_1_Z };
// 2207       do_blocking_move_to(deploy_1, MMM_TO_MMS(Z_PROBE_ALLEN_KEY_DEPLOY_1_FEEDRATE));
// 2208     #endif
// 2209     #if defined(Z_PROBE_ALLEN_KEY_DEPLOY_2_X) || defined(Z_PROBE_ALLEN_KEY_DEPLOY_2_Y) || defined(Z_PROBE_ALLEN_KEY_DEPLOY_2_Z)
// 2210       #ifndef Z_PROBE_ALLEN_KEY_DEPLOY_2_X
// 2211         #define Z_PROBE_ALLEN_KEY_DEPLOY_2_X current_position[X_AXIS]
// 2212       #endif
// 2213       #ifndef Z_PROBE_ALLEN_KEY_DEPLOY_2_Y
// 2214         #define Z_PROBE_ALLEN_KEY_DEPLOY_2_Y current_position[Y_AXIS]
// 2215       #endif
// 2216       #ifndef Z_PROBE_ALLEN_KEY_DEPLOY_2_Z
// 2217         #define Z_PROBE_ALLEN_KEY_DEPLOY_2_Z current_position[Z_AXIS]
// 2218       #endif
// 2219       #ifndef Z_PROBE_ALLEN_KEY_DEPLOY_2_FEEDRATE
// 2220         #define Z_PROBE_ALLEN_KEY_DEPLOY_2_FEEDRATE 0.0
// 2221       #endif
// 2222       const float deploy_2[] = { Z_PROBE_ALLEN_KEY_DEPLOY_2_X, Z_PROBE_ALLEN_KEY_DEPLOY_2_Y, Z_PROBE_ALLEN_KEY_DEPLOY_2_Z };
// 2223       do_blocking_move_to(deploy_2, MMM_TO_MMS(Z_PROBE_ALLEN_KEY_DEPLOY_2_FEEDRATE));
// 2224     #endif
// 2225     #if defined(Z_PROBE_ALLEN_KEY_DEPLOY_3_X) || defined(Z_PROBE_ALLEN_KEY_DEPLOY_3_Y) || defined(Z_PROBE_ALLEN_KEY_DEPLOY_3_Z)
// 2226       #ifndef Z_PROBE_ALLEN_KEY_DEPLOY_3_X
// 2227         #define Z_PROBE_ALLEN_KEY_DEPLOY_3_X current_position[X_AXIS]
// 2228       #endif
// 2229       #ifndef Z_PROBE_ALLEN_KEY_DEPLOY_3_Y
// 2230         #define Z_PROBE_ALLEN_KEY_DEPLOY_3_Y current_position[Y_AXIS]
// 2231       #endif
// 2232       #ifndef Z_PROBE_ALLEN_KEY_DEPLOY_3_Z
// 2233         #define Z_PROBE_ALLEN_KEY_DEPLOY_3_Z current_position[Z_AXIS]
// 2234       #endif
// 2235       #ifndef Z_PROBE_ALLEN_KEY_DEPLOY_3_FEEDRATE
// 2236         #define Z_PROBE_ALLEN_KEY_DEPLOY_3_FEEDRATE 0.0
// 2237       #endif
// 2238       const float deploy_3[] = { Z_PROBE_ALLEN_KEY_DEPLOY_3_X, Z_PROBE_ALLEN_KEY_DEPLOY_3_Y, Z_PROBE_ALLEN_KEY_DEPLOY_3_Z };
// 2239       do_blocking_move_to(deploy_3, MMM_TO_MMS(Z_PROBE_ALLEN_KEY_DEPLOY_3_FEEDRATE));
// 2240     #endif
// 2241     #if defined(Z_PROBE_ALLEN_KEY_DEPLOY_4_X) || defined(Z_PROBE_ALLEN_KEY_DEPLOY_4_Y) || defined(Z_PROBE_ALLEN_KEY_DEPLOY_4_Z)
// 2242       #ifndef Z_PROBE_ALLEN_KEY_DEPLOY_4_X
// 2243         #define Z_PROBE_ALLEN_KEY_DEPLOY_4_X current_position[X_AXIS]
// 2244       #endif
// 2245       #ifndef Z_PROBE_ALLEN_KEY_DEPLOY_4_Y
// 2246         #define Z_PROBE_ALLEN_KEY_DEPLOY_4_Y current_position[Y_AXIS]
// 2247       #endif
// 2248       #ifndef Z_PROBE_ALLEN_KEY_DEPLOY_4_Z
// 2249         #define Z_PROBE_ALLEN_KEY_DEPLOY_4_Z current_position[Z_AXIS]
// 2250       #endif
// 2251       #ifndef Z_PROBE_ALLEN_KEY_DEPLOY_4_FEEDRATE
// 2252         #define Z_PROBE_ALLEN_KEY_DEPLOY_4_FEEDRATE 0.0
// 2253       #endif
// 2254       const float deploy_4[] = { Z_PROBE_ALLEN_KEY_DEPLOY_4_X, Z_PROBE_ALLEN_KEY_DEPLOY_4_Y, Z_PROBE_ALLEN_KEY_DEPLOY_4_Z };
// 2255       do_blocking_move_to(deploy_4, MMM_TO_MMS(Z_PROBE_ALLEN_KEY_DEPLOY_4_FEEDRATE));
// 2256     #endif
// 2257     #if defined(Z_PROBE_ALLEN_KEY_DEPLOY_5_X) || defined(Z_PROBE_ALLEN_KEY_DEPLOY_5_Y) || defined(Z_PROBE_ALLEN_KEY_DEPLOY_5_Z)
// 2258       #ifndef Z_PROBE_ALLEN_KEY_DEPLOY_5_X
// 2259         #define Z_PROBE_ALLEN_KEY_DEPLOY_5_X current_position[X_AXIS]
// 2260       #endif
// 2261       #ifndef Z_PROBE_ALLEN_KEY_DEPLOY_5_Y
// 2262         #define Z_PROBE_ALLEN_KEY_DEPLOY_5_Y current_position[Y_AXIS]
// 2263       #endif
// 2264       #ifndef Z_PROBE_ALLEN_KEY_DEPLOY_5_Z
// 2265         #define Z_PROBE_ALLEN_KEY_DEPLOY_5_Z current_position[Z_AXIS]
// 2266       #endif
// 2267       #ifndef Z_PROBE_ALLEN_KEY_DEPLOY_5_FEEDRATE
// 2268         #define Z_PROBE_ALLEN_KEY_DEPLOY_5_FEEDRATE 0.0
// 2269       #endif
// 2270       const float deploy_5[] = { Z_PROBE_ALLEN_KEY_DEPLOY_5_X, Z_PROBE_ALLEN_KEY_DEPLOY_5_Y, Z_PROBE_ALLEN_KEY_DEPLOY_5_Z };
// 2271       do_blocking_move_to(deploy_5, MMM_TO_MMS(Z_PROBE_ALLEN_KEY_DEPLOY_5_FEEDRATE));
// 2272     #endif
// 2273   }
// 2274 
// 2275   void run_stow_moves_script() {
// 2276     #if defined(Z_PROBE_ALLEN_KEY_STOW_1_X) || defined(Z_PROBE_ALLEN_KEY_STOW_1_Y) || defined(Z_PROBE_ALLEN_KEY_STOW_1_Z)
// 2277       #ifndef Z_PROBE_ALLEN_KEY_STOW_1_X
// 2278         #define Z_PROBE_ALLEN_KEY_STOW_1_X current_position[X_AXIS]
// 2279       #endif
// 2280       #ifndef Z_PROBE_ALLEN_KEY_STOW_1_Y
// 2281         #define Z_PROBE_ALLEN_KEY_STOW_1_Y current_position[Y_AXIS]
// 2282       #endif
// 2283       #ifndef Z_PROBE_ALLEN_KEY_STOW_1_Z
// 2284         #define Z_PROBE_ALLEN_KEY_STOW_1_Z current_position[Z_AXIS]
// 2285       #endif
// 2286       #ifndef Z_PROBE_ALLEN_KEY_STOW_1_FEEDRATE
// 2287         #define Z_PROBE_ALLEN_KEY_STOW_1_FEEDRATE 0.0
// 2288       #endif
// 2289       const float stow_1[] = { Z_PROBE_ALLEN_KEY_STOW_1_X, Z_PROBE_ALLEN_KEY_STOW_1_Y, Z_PROBE_ALLEN_KEY_STOW_1_Z };
// 2290       do_blocking_move_to(stow_1, MMM_TO_MMS(Z_PROBE_ALLEN_KEY_STOW_1_FEEDRATE));
// 2291     #endif
// 2292     #if defined(Z_PROBE_ALLEN_KEY_STOW_2_X) || defined(Z_PROBE_ALLEN_KEY_STOW_2_Y) || defined(Z_PROBE_ALLEN_KEY_STOW_2_Z)
// 2293       #ifndef Z_PROBE_ALLEN_KEY_STOW_2_X
// 2294         #define Z_PROBE_ALLEN_KEY_STOW_2_X current_position[X_AXIS]
// 2295       #endif
// 2296       #ifndef Z_PROBE_ALLEN_KEY_STOW_2_Y
// 2297         #define Z_PROBE_ALLEN_KEY_STOW_2_Y current_position[Y_AXIS]
// 2298       #endif
// 2299       #ifndef Z_PROBE_ALLEN_KEY_STOW_2_Z
// 2300         #define Z_PROBE_ALLEN_KEY_STOW_2_Z current_position[Z_AXIS]
// 2301       #endif
// 2302       #ifndef Z_PROBE_ALLEN_KEY_STOW_2_FEEDRATE
// 2303         #define Z_PROBE_ALLEN_KEY_STOW_2_FEEDRATE 0.0
// 2304       #endif
// 2305       const float stow_2[] = { Z_PROBE_ALLEN_KEY_STOW_2_X, Z_PROBE_ALLEN_KEY_STOW_2_Y, Z_PROBE_ALLEN_KEY_STOW_2_Z };
// 2306       do_blocking_move_to(stow_2, MMM_TO_MMS(Z_PROBE_ALLEN_KEY_STOW_2_FEEDRATE));
// 2307     #endif
// 2308     #if defined(Z_PROBE_ALLEN_KEY_STOW_3_X) || defined(Z_PROBE_ALLEN_KEY_STOW_3_Y) || defined(Z_PROBE_ALLEN_KEY_STOW_3_Z)
// 2309       #ifndef Z_PROBE_ALLEN_KEY_STOW_3_X
// 2310         #define Z_PROBE_ALLEN_KEY_STOW_3_X current_position[X_AXIS]
// 2311       #endif
// 2312       #ifndef Z_PROBE_ALLEN_KEY_STOW_3_Y
// 2313         #define Z_PROBE_ALLEN_KEY_STOW_3_Y current_position[Y_AXIS]
// 2314       #endif
// 2315       #ifndef Z_PROBE_ALLEN_KEY_STOW_3_Z
// 2316         #define Z_PROBE_ALLEN_KEY_STOW_3_Z current_position[Z_AXIS]
// 2317       #endif
// 2318       #ifndef Z_PROBE_ALLEN_KEY_STOW_3_FEEDRATE
// 2319         #define Z_PROBE_ALLEN_KEY_STOW_3_FEEDRATE 0.0
// 2320       #endif
// 2321       const float stow_3[] = { Z_PROBE_ALLEN_KEY_STOW_3_X, Z_PROBE_ALLEN_KEY_STOW_3_Y, Z_PROBE_ALLEN_KEY_STOW_3_Z };
// 2322       do_blocking_move_to(stow_3, MMM_TO_MMS(Z_PROBE_ALLEN_KEY_STOW_3_FEEDRATE));
// 2323     #endif
// 2324     #if defined(Z_PROBE_ALLEN_KEY_STOW_4_X) || defined(Z_PROBE_ALLEN_KEY_STOW_4_Y) || defined(Z_PROBE_ALLEN_KEY_STOW_4_Z)
// 2325       #ifndef Z_PROBE_ALLEN_KEY_STOW_4_X
// 2326         #define Z_PROBE_ALLEN_KEY_STOW_4_X current_position[X_AXIS]
// 2327       #endif
// 2328       #ifndef Z_PROBE_ALLEN_KEY_STOW_4_Y
// 2329         #define Z_PROBE_ALLEN_KEY_STOW_4_Y current_position[Y_AXIS]
// 2330       #endif
// 2331       #ifndef Z_PROBE_ALLEN_KEY_STOW_4_Z
// 2332         #define Z_PROBE_ALLEN_KEY_STOW_4_Z current_position[Z_AXIS]
// 2333       #endif
// 2334       #ifndef Z_PROBE_ALLEN_KEY_STOW_4_FEEDRATE
// 2335         #define Z_PROBE_ALLEN_KEY_STOW_4_FEEDRATE 0.0
// 2336       #endif
// 2337       const float stow_4[] = { Z_PROBE_ALLEN_KEY_STOW_4_X, Z_PROBE_ALLEN_KEY_STOW_4_Y, Z_PROBE_ALLEN_KEY_STOW_4_Z };
// 2338       do_blocking_move_to(stow_4, MMM_TO_MMS(Z_PROBE_ALLEN_KEY_STOW_4_FEEDRATE));
// 2339     #endif
// 2340     #if defined(Z_PROBE_ALLEN_KEY_STOW_5_X) || defined(Z_PROBE_ALLEN_KEY_STOW_5_Y) || defined(Z_PROBE_ALLEN_KEY_STOW_5_Z)
// 2341       #ifndef Z_PROBE_ALLEN_KEY_STOW_5_X
// 2342         #define Z_PROBE_ALLEN_KEY_STOW_5_X current_position[X_AXIS]
// 2343       #endif
// 2344       #ifndef Z_PROBE_ALLEN_KEY_STOW_5_Y
// 2345         #define Z_PROBE_ALLEN_KEY_STOW_5_Y current_position[Y_AXIS]
// 2346       #endif
// 2347       #ifndef Z_PROBE_ALLEN_KEY_STOW_5_Z
// 2348         #define Z_PROBE_ALLEN_KEY_STOW_5_Z current_position[Z_AXIS]
// 2349       #endif
// 2350       #ifndef Z_PROBE_ALLEN_KEY_STOW_5_FEEDRATE
// 2351         #define Z_PROBE_ALLEN_KEY_STOW_5_FEEDRATE 0.0
// 2352       #endif
// 2353       const float stow_5[] = { Z_PROBE_ALLEN_KEY_STOW_5_X, Z_PROBE_ALLEN_KEY_STOW_5_Y, Z_PROBE_ALLEN_KEY_STOW_5_Z };
// 2354       do_blocking_move_to(stow_5, MMM_TO_MMS(Z_PROBE_ALLEN_KEY_STOW_5_FEEDRATE));
// 2355     #endif
// 2356   }
// 2357 
// 2358 #endif // Z_PROBE_ALLEN_KEY
// 2359 
// 2360 #if ENABLED(PROBING_FANS_OFF)
// 2361 
// 2362   void fans_pause(const bool p) {
// 2363     if (p != fans_paused) {
// 2364       fans_paused = p;
// 2365       if (p)
// 2366         for (uint8_t x = 0; x < FAN_COUNT; x++) {
// 2367           paused_fanSpeeds[x] = fanSpeeds[x];
// 2368           fanSpeeds[x] = 0;
// 2369         }
// 2370       else
// 2371         for (uint8_t x = 0; x < FAN_COUNT; x++)
// 2372           fanSpeeds[x] = paused_fanSpeeds[x];
// 2373     }
// 2374   }
// 2375 
// 2376 #endif // PROBING_FANS_OFF
// 2377 
// 2378 #if HAS_BED_PROBE
// 2379 
// 2380   // TRIGGERED_WHEN_STOWED_TEST can easily be extended to servo probes, ... if needed.
// 2381   #if ENABLED(PROBE_IS_TRIGGERED_WHEN_STOWED_TEST)
// 2382     #if ENABLED(Z_MIN_PROBE_ENDSTOP)
// 2383       #define _TRIGGERED_WHEN_STOWED_TEST (READ(Z_MIN_PROBE_PIN) != Z_MIN_PROBE_ENDSTOP_INVERTING)
// 2384     #else
// 2385       #define _TRIGGERED_WHEN_STOWED_TEST (READ(Z_MIN_PIN) != Z_MIN_ENDSTOP_INVERTING)
// 2386     #endif
// 2387   #endif
// 2388 
// 2389   #if QUIET_PROBING
// 2390     void probing_pause(const bool p) {
// 2391       #if ENABLED(PROBING_HEATERS_OFF)
// 2392         thermalManager.pause(p);
// 2393       #endif
// 2394       #if ENABLED(PROBING_FANS_OFF)
// 2395         fans_pause(p);
// 2396       #endif
// 2397       if (p) safe_delay(
// 2398         #if DELAY_BEFORE_PROBING > 25
// 2399           DELAY_BEFORE_PROBING
// 2400         #else
// 2401           25
// 2402         #endif
// 2403       );
// 2404     }
// 2405   #endif // QUIET_PROBING
// 2406 
// 2407   #if ENABLED(BLTOUCH)
// 2408 
// 2409     void bltouch_command(int angle) {
// 2410       MOVE_SERVO(Z_ENDSTOP_SERVO_NR, angle);  // Give the BL-Touch the command and wait
// 2411       safe_delay(BLTOUCH_DELAY);
// 2412     }
// 2413 
// 2414     bool set_bltouch_deployed(const bool deploy) {
// 2415       if (deploy && TEST_BLTOUCH()) {      // If BL-Touch says it's triggered
// 2416         bltouch_command(BLTOUCH_RESET);    //  try to reset it.
// 2417         bltouch_command(BLTOUCH_DEPLOY);   // Also needs to deploy and stow to
// 2418         bltouch_command(BLTOUCH_STOW);     //  clear the triggered condition.
// 2419         safe_delay(1500);                  // Wait for internal self-test to complete.
// 2420                                            //  (Measured completion time was 0.65 seconds
// 2421                                            //   after reset, deploy, and stow sequence)
// 2422         if (TEST_BLTOUCH()) {              // If it still claims to be triggered...
// 2423           SERIAL_ERROR_START();
// 2424           SERIAL_ERRORLNPGM(MSG_STOP_BLTOUCH);
// 2425           stop();                          // punt!
// 2426           return true;
// 2427         }
// 2428       }
// 2429 
// 2430       bltouch_command(deploy ? BLTOUCH_DEPLOY : BLTOUCH_STOW);
// 2431 
// 2432       #if ENABLED(DEBUG_LEVELING_FEATURE)
// 2433         if (DEBUGGING(LEVELING)) {
// 2434           SERIAL_ECHOPAIR("set_bltouch_deployed(", deploy);
// 2435           SERIAL_CHAR(')');
// 2436           SERIAL_EOL();
// 2437         }
// 2438       #endif
// 2439 
// 2440       return false;
// 2441     }
// 2442 
// 2443   #endif // BLTOUCH
// 2444 
// 2445   // returns false for ok and true for failure
// 2446   bool set_probe_deployed(bool deploy) {
// 2447 
// 2448     #if ENABLED(DEBUG_LEVELING_FEATURE)
// 2449       if (DEBUGGING(LEVELING)) {
// 2450         DEBUG_POS("set_probe_deployed", current_position);
// 2451         SERIAL_ECHOLNPAIR("deploy: ", deploy);
// 2452       }
// 2453     #endif
// 2454 
// 2455     if (endstops.z_probe_enabled == deploy) return false;
// 2456 
// 2457     // Make room for probe
// 2458     //do_probe_raise(_Z_CLEARANCE_DEPLOY_PROBE);
// 2459     do_probe_raise(Z_CLEARANCE_DEPLOY_PROBE>Z_CLEARANCE_BETWEEN_PROBES ? Z_CLEARANCE_DEPLOY_PROBE : Z_CLEARANCE_BETWEEN_PROBES);
// 2460 
// 2461     #if ENABLED(Z_PROBE_SLED) || ENABLED(Z_PROBE_ALLEN_KEY)
// 2462       #if ENABLED(Z_PROBE_SLED)
// 2463         #define _AUE_ARGS true, false, false
// 2464       #else
// 2465         #define _AUE_ARGS
// 2466       #endif
// 2467       if (axis_unhomed_error(_AUE_ARGS)) {
// 2468         SERIAL_ERROR_START();
// 2469         SERIAL_ERRORLNPGM(MSG_STOP_UNHOMED);
// 2470         stop();
// 2471         return true;
// 2472       }
// 2473     #endif
// 2474 
// 2475     const float oldXpos = current_position[X_AXIS],
// 2476                 oldYpos = current_position[Y_AXIS];
// 2477 
// 2478     #ifdef _TRIGGERED_WHEN_STOWED_TEST
// 2479 
// 2480       // If endstop is already false, the Z probe is deployed
// 2481       if (_TRIGGERED_WHEN_STOWED_TEST == deploy) {     // closed after the probe specific actions.
// 2482                                                        // Would a goto be less ugly?
// 2483         //while (!_TRIGGERED_WHEN_STOWED_TEST) idle(); // would offer the opportunity
// 2484                                                        // for a triggered when stowed manual probe.
// 2485 
// 2486         if (!deploy) endstops.enable_z_probe(false); // Switch off triggered when stowed probes early
// 2487                                                      // otherwise an Allen-Key probe can't be stowed.
// 2488     #endif
// 2489 
// 2490         #if ENABLED(SOLENOID_PROBE)
// 2491 
// 2492           #if HAS_SOLENOID_1
// 2493             WRITE(SOL1_PIN, deploy);
// 2494           #endif
// 2495 
// 2496         #elif ENABLED(Z_PROBE_SLED)
// 2497 
// 2498           dock_sled(!deploy);
// 2499 
// 2500         #elif HAS_Z_SERVO_ENDSTOP && DISABLED(BLTOUCH)
// 2501 
// 2502           MOVE_SERVO(Z_ENDSTOP_SERVO_NR, z_servo_angle[deploy ? 0 : 1]);
// 2503 
// 2504         #elif ENABLED(Z_PROBE_ALLEN_KEY)
// 2505 
// 2506           deploy ? run_deploy_moves_script() : run_stow_moves_script();
// 2507 
// 2508         #endif
// 2509 
// 2510     #ifdef _TRIGGERED_WHEN_STOWED_TEST
// 2511       } // _TRIGGERED_WHEN_STOWED_TEST == deploy
// 2512 
// 2513       if (_TRIGGERED_WHEN_STOWED_TEST == deploy) { // State hasn't changed?
// 2514 
// 2515         if (IsRunning()) {
// 2516           SERIAL_ERROR_START();
// 2517           SERIAL_ERRORLNPGM("Z-Probe failed");
// 2518           LCD_ALERTMESSAGEPGM("Err: ZPROBE");
// 2519         }
// 2520         stop();
// 2521         return true;
// 2522 
// 2523       } // _TRIGGERED_WHEN_STOWED_TEST == deploy
// 2524 
// 2525     #endif
// 2526 
// 2527     do_blocking_move_to(oldXpos, oldYpos, current_position[Z_AXIS]); // return to position before deploy
// 2528     endstops.enable_z_probe(deploy);
// 2529     return false;
// 2530   }
// 2531 
// 2532   /**
// 2533    * @brief Used by run_z_probe to do a single Z probe move.
// 2534    *
// 2535    * @param  z        Z destination
// 2536    * @param  fr_mm_s  Feedrate in mm/s
// 2537    * @return true to indicate an error
// 2538    */
// 2539   static bool do_probe_move(const float z, const float fr_mm_m) {
// 2540     #if ENABLED(DEBUG_LEVELING_FEATURE)
// 2541       if (DEBUGGING(LEVELING)) DEBUG_POS(">>> do_probe_move", current_position);
// 2542     #endif
// 2543 
// 2544     // Deploy BLTouch at the start of any probe
// 2545     #if ENABLED(BLTOUCH)
// 2546       if (set_bltouch_deployed(true)) return true;
// 2547     #endif
// 2548 
// 2549     #if QUIET_PROBING
// 2550       probing_pause(true);
// 2551     #endif
// 2552 
// 2553     // Move down until probe triggered
// 2554     do_blocking_move_to_z(z, MMM_TO_MMS(fr_mm_m));
// 2555 
// 2556     // Check to see if the probe was triggered
// 2557     const bool probe_triggered = TEST(Endstops::endstop_hit_bits,
// 2558       #if ENABLED(Z_MIN_PROBE_USES_Z_MIN_ENDSTOP_PIN)
// 2559         Z_MIN
// 2560       #else
// 2561         Z_MIN_PROBE
// 2562       #endif
// 2563     );
// 2564 
// 2565     #if QUIET_PROBING
// 2566       probing_pause(false);
// 2567     #endif
// 2568 
// 2569     // Retract BLTouch immediately after a probe if it was triggered
// 2570     #if ENABLED(BLTOUCH)
// 2571       if (probe_triggered && set_bltouch_deployed(false)) return true;
// 2572     #endif
// 2573 
// 2574     // Clear endstop flags
// 2575     endstops.hit_on_purpose();
// 2576 
// 2577     // Get Z where the steppers were interrupted
// 2578     set_current_from_steppers_for_axis(Z_AXIS);
// 2579 
// 2580     // Tell the planner where we actually are
// 2581     SYNC_PLAN_POSITION_KINEMATIC();
// 2582 
// 2583     #if ENABLED(DEBUG_LEVELING_FEATURE)
// 2584       if (DEBUGGING(LEVELING)) DEBUG_POS("<<< do_probe_move", current_position);
// 2585     #endif
// 2586 
// 2587     return !probe_triggered;
// 2588   }
// 2589 
// 2590   /**
// 2591    * @details Used by probe_pt to do a single Z probe at the current position.
// 2592    *          Leaves current_position[Z_AXIS] at the height where the probe triggered.
// 2593    *
// 2594    * @return The raw Z position where the probe was triggered
// 2595    */
// 2596   static float run_z_probe() {
// 2597 
// 2598     #if ENABLED(DEBUG_LEVELING_FEATURE)
// 2599       if (DEBUGGING(LEVELING)) DEBUG_POS(">>> run_z_probe", current_position);
// 2600     #endif
// 2601 
// 2602     // Prevent stepper_inactive_time from running out and EXTRUDER_RUNOUT_PREVENT from extruding
// 2603     refresh_cmd_timeout();
// 2604 
// 2605     // Double-probing does a fast probe followed by a slow probe
// 2606     #if MULTIPLE_PROBING == 2
// 2607 
// 2608       // Do a first probe at the fast speed
// 2609       if (do_probe_move(-10, Z_PROBE_SPEED_FAST)) return NAN;
// 2610 
// 2611       float first_probe_z = current_position[Z_AXIS];
// 2612 
// 2613       #if ENABLED(DEBUG_LEVELING_FEATURE)
// 2614         if (DEBUGGING(LEVELING)) SERIAL_ECHOLNPAIR("1st Probe Z:", first_probe_z);
// 2615       #endif
// 2616 
// 2617       // move up to make clearance for the probe
// 2618       do_blocking_move_to_z(current_position[Z_AXIS] + Z_CLEARANCE_BETWEEN_PROBES, MMM_TO_MMS(Z_PROBE_SPEED_FAST));
// 2619 
// 2620     #else
// 2621 
// 2622       // If the nozzle is above the travel height then
// 2623       // move down quickly before doing the slow probe
// 2624       float z = Z_CLEARANCE_DEPLOY_PROBE;
// 2625       if (zprobe_zoffset < 0) z -= zprobe_zoffset;
// 2626 
// 2627       if (z < current_position[Z_AXIS]) {
// 2628 
// 2629         // If we don't make it to the z position (i.e. the probe triggered), move up to make clearance for the probe
// 2630         if (!do_probe_move(z, Z_PROBE_SPEED_FAST))
// 2631           do_blocking_move_to_z(current_position[Z_AXIS] + Z_CLEARANCE_BETWEEN_PROBES, MMM_TO_MMS(Z_PROBE_SPEED_FAST));
// 2632       }
// 2633     #endif
// 2634 
// 2635     #if MULTIPLE_PROBING > 2
// 2636       float probes_total = 0;
// 2637       for (uint8_t p = MULTIPLE_PROBING + 1; --p;) {
// 2638     #endif
// 2639 
// 2640         // move down slowly to find bed
// 2641         if (do_probe_move(-10, Z_PROBE_SPEED_SLOW)) return NAN;
// 2642 
// 2643     #if MULTIPLE_PROBING > 2
// 2644         probes_total += current_position[Z_AXIS];
// 2645         if (p > 1) do_blocking_move_to_z(current_position[Z_AXIS] + Z_CLEARANCE_BETWEEN_PROBES, MMM_TO_MMS(Z_PROBE_SPEED_FAST));
// 2646       }
// 2647     #endif
// 2648 
// 2649     #if MULTIPLE_PROBING > 2
// 2650 
// 2651       // Return the average value of all probes
// 2652       return probes_total * (1.0 / (MULTIPLE_PROBING));
// 2653 
// 2654     #elif MULTIPLE_PROBING == 2
// 2655 
// 2656       const float z2 = current_position[Z_AXIS];
// 2657 
// 2658       #if ENABLED(DEBUG_LEVELING_FEATURE)
// 2659         if (DEBUGGING(LEVELING)) {
// 2660           SERIAL_ECHOPAIR("2nd Probe Z:", z2);
// 2661           SERIAL_ECHOLNPAIR(" Discrepancy:", first_probe_z - z2);
// 2662         }
// 2663       #endif
// 2664 
// 2665       // Return a weighted average of the fast and slow probes
// 2666       return (z2 * 3.0 + first_probe_z * 2.0) * 0.2;
// 2667 
// 2668     #else
// 2669 
// 2670       // Return the single probe result
// 2671       return current_position[Z_AXIS];
// 2672 
// 2673     #endif
// 2674 
// 2675     #if ENABLED(DEBUG_LEVELING_FEATURE)
// 2676       if (DEBUGGING(LEVELING)) DEBUG_POS("<<< run_z_probe", current_position);
// 2677     #endif
// 2678   }
// 2679 
// 2680   /**
// 2681    * - Move to the given XY
// 2682    * - Deploy the probe, if not already deployed
// 2683    * - Probe the bed, get the Z position
// 2684    * - Depending on the 'stow' flag
// 2685    *   - Stow the probe, or
// 2686    *   - Raise to the BETWEEN height
// 2687    * - Return the probed Z position
// 2688    */
// 2689   float probe_pt(const float &rx, const float &ry, const bool stow, const uint8_t verbose_level, const bool probe_relative=true) {
// 2690     #if ENABLED(DEBUG_LEVELING_FEATURE)
// 2691       if (DEBUGGING(LEVELING)) {
// 2692         SERIAL_ECHOPAIR(">>> probe_pt(", LOGICAL_X_POSITION(rx));
// 2693         SERIAL_ECHOPAIR(", ", LOGICAL_Y_POSITION(ry));
// 2694         SERIAL_ECHOPAIR(", ", stow ? "" : "no ");
// 2695         SERIAL_ECHOLNPGM("stow)");
// 2696         DEBUG_POS("", current_position);
// 2697       }
// 2698     #endif
// 2699 
// 2700     // TODO: Adapt for SCARA, where the offset rotates
// 2701     float nx = rx, ny = ry;
// 2702     if (probe_relative) {
// 2703       if (!position_is_reachable_by_probe(rx, ry)) return NAN;  // The given position is in terms of the probe
// 2704       nx -= (X_PROBE_OFFSET_FROM_EXTRUDER);                     // Get the nozzle position
// 2705       ny -= (Y_PROBE_OFFSET_FROM_EXTRUDER);
// 2706     }
// 2707     else if (!position_is_reachable(nx, ny)) return NAN;        // The given position is in terms of the nozzle
// 2708 
// 2709     const float nz =
// 2710       #if ENABLED(DELTA)
// 2711         // Move below clip height or xy move will be aborted by do_blocking_move_to
// 2712         min(current_position[Z_AXIS], delta_clip_start_height)
// 2713       #else
// 2714         current_position[Z_AXIS]
// 2715       #endif
// 2716     ;
// 2717 
// 2718     const float old_feedrate_mm_s = feedrate_mm_s;
// 2719     feedrate_mm_s = XY_PROBE_FEEDRATE_MM_S;
// 2720 
// 2721     // Move the probe to the starting XYZ
// 2722     do_blocking_move_to(nx, ny, nz);
// 2723 
// 2724     float measured_z = NAN;
// 2725     if (!DEPLOY_PROBE()) {
// 2726       measured_z = run_z_probe() + zprobe_zoffset;
// 2727 
// 2728       if (!stow)
// 2729         do_blocking_move_to_z(current_position[Z_AXIS] + Z_CLEARANCE_BETWEEN_PROBES, MMM_TO_MMS(Z_PROBE_SPEED_FAST));
// 2730       else
// 2731         if (STOW_PROBE()) measured_z = NAN;
// 2732     }
// 2733 
// 2734     if (verbose_level > 2) {
// 2735       SERIAL_PROTOCOLPGM("Bed X: ");
// 2736       SERIAL_PROTOCOL_F(LOGICAL_X_POSITION(rx), 3);
// 2737       SERIAL_PROTOCOLPGM(" Y: ");
// 2738       SERIAL_PROTOCOL_F(LOGICAL_Y_POSITION(ry), 3);
// 2739       SERIAL_PROTOCOLPGM(" Z: ");
// 2740       SERIAL_PROTOCOL_F(measured_z, 3);
// 2741       SERIAL_EOL();
// 2742     }
// 2743 
// 2744     #if ENABLED(DEBUG_LEVELING_FEATURE)
// 2745       if (DEBUGGING(LEVELING)) SERIAL_ECHOLNPGM("<<< probe_pt");
// 2746     #endif
// 2747 
// 2748     feedrate_mm_s = old_feedrate_mm_s;
// 2749 
// 2750     if (isnan(measured_z)) {
// 2751       LCD_MESSAGEPGM(MSG_ERR_PROBING_FAILED);
// 2752       SERIAL_ERROR_START();
// 2753       SERIAL_ERRORLNPGM(MSG_ERR_PROBING_FAILED);
// 2754     }
// 2755 
// 2756     return measured_z;
// 2757   }
// 2758 
// 2759 #endif // HAS_BED_PROBE
// 2760 
// 2761 #if HAS_LEVELING
// 2762 
// 2763   bool leveling_is_valid() {
// 2764     return
// 2765       #if ENABLED(MESH_BED_LEVELING)
// 2766         mbl.has_mesh
// 2767       #elif ENABLED(AUTO_BED_LEVELING_BILINEAR)
// 2768         !!bilinear_grid_spacing[X_AXIS]
// 2769       #elif ENABLED(AUTO_BED_LEVELING_UBL)
// 2770         true
// 2771       #else // 3POINT, LINEAR
// 2772         true
// 2773       #endif
// 2774     ;
// 2775   }
// 2776 
// 2777   /**
// 2778    * Turn bed leveling on or off, fixing the current
// 2779    * position as-needed.
// 2780    *
// 2781    * Disable: Current position = physical position
// 2782    *  Enable: Current position = "unleveled" physical position
// 2783    */
// 2784   void set_bed_leveling_enabled(const bool enable/*=true*/) {
// 2785 
// 2786     #if ENABLED(AUTO_BED_LEVELING_BILINEAR)
// 2787       const bool can_change = (!enable || leveling_is_valid());
// 2788     #else
// 2789       constexpr bool can_change = true;
// 2790     #endif
// 2791 
// 2792     if (can_change && enable != planner.leveling_active) {
// 2793 
// 2794       #if ENABLED(MESH_BED_LEVELING)
// 2795 
// 2796         if (!enable)
// 2797           planner.apply_leveling(current_position[X_AXIS], current_position[Y_AXIS], current_position[Z_AXIS]);
// 2798 
// 2799         const bool enabling = enable && leveling_is_valid();
// 2800         planner.leveling_active = enabling;
// 2801         if (enabling) planner.unapply_leveling(current_position);
// 2802 
// 2803       #elif ENABLED(AUTO_BED_LEVELING_UBL)
// 2804         #if PLANNER_LEVELING
// 2805           if (planner.leveling_active) {                       // leveling from on to off
// 2806             // change unleveled current_position to physical current_position without moving steppers.
// 2807             planner.apply_leveling(current_position[X_AXIS], current_position[Y_AXIS], current_position[Z_AXIS]);
// 2808             planner.leveling_active = false;                   // disable only AFTER calling apply_leveling
// 2809           }
// 2810           else {                                        // leveling from off to on
// 2811             planner.leveling_active = true;                    // enable BEFORE calling unapply_leveling, otherwise ignored
// 2812             // change physical current_position to unleveled current_position without moving steppers.
// 2813             planner.unapply_leveling(current_position);
// 2814           }
// 2815         #else
// 2816           planner.leveling_active = enable;                    // just flip the bit, current_position will be wrong until next move.
// 2817         #endif
// 2818 
// 2819       #else // ABL
// 2820 
// 2821         #if ENABLED(AUTO_BED_LEVELING_BILINEAR)
// 2822           // Force bilinear_z_offset to re-calculate next time
// 2823           const float reset[XYZ] = { -9999.999, -9999.999, 0 };
// 2824           (void)bilinear_z_offset(reset);
// 2825         #endif
// 2826 
// 2827         // Enable or disable leveling compensation in the planner
// 2828         planner.leveling_active = enable;
// 2829 
// 2830         if (!enable)
// 2831           // When disabling just get the current position from the steppers.
// 2832           // This will yield the smallest error when first converted back to steps.
// 2833           set_current_from_steppers_for_axis(
// 2834             #if ABL_PLANAR
// 2835               ALL_AXES
// 2836             #else
// 2837               Z_AXIS
// 2838             #endif
// 2839           );
// 2840         else
// 2841           // When enabling, remove compensation from the current position,
// 2842           // so compensation will give the right stepper counts.
// 2843           planner.unapply_leveling(current_position);
// 2844 
// 2845         SYNC_PLAN_POSITION_KINEMATIC();
// 2846 
// 2847       #endif // ABL
// 2848     }
// 2849   }
// 2850 
// 2851   #if ENABLED(ENABLE_LEVELING_FADE_HEIGHT)
// 2852 
// 2853     void set_z_fade_height(const float zfh, const bool do_report/*=true*/) {
// 2854 
// 2855       if (planner.z_fade_height == zfh) return; // do nothing if no change
// 2856 
// 2857       const bool level_active = planner.leveling_active;
// 2858 
// 2859       #if ENABLED(AUTO_BED_LEVELING_UBL)
// 2860         if (level_active) set_bed_leveling_enabled(false);  // turn off before changing fade height for proper apply/unapply leveling to maintain current_position
// 2861       #endif
// 2862 
// 2863       planner.set_z_fade_height(zfh);
// 2864 
// 2865       if (level_active) {
// 2866         const float oldpos[] = { current_position[X_AXIS], current_position[Y_AXIS], current_position[Z_AXIS] };
// 2867         #if ENABLED(AUTO_BED_LEVELING_UBL)
// 2868           set_bed_leveling_enabled(true);  // turn back on after changing fade height
// 2869         #else
// 2870           set_current_from_steppers_for_axis(
// 2871             #if ABL_PLANAR
// 2872               ALL_AXES
// 2873             #else
// 2874               Z_AXIS
// 2875             #endif
// 2876           );
// 2877           SYNC_PLAN_POSITION_KINEMATIC();
// 2878         #endif
// 2879         if (do_report && memcmp(oldpos, current_position, sizeof(oldpos)))
// 2880           report_current_position();
// 2881       }
// 2882     }
// 2883 
// 2884   #endif // LEVELING_FADE_HEIGHT
// 2885 
// 2886   /**
// 2887    * Reset calibration results to zero.
// 2888    */
// 2889   void reset_bed_level() {
// 2890     #if ENABLED(DEBUG_LEVELING_FEATURE)
// 2891       if (DEBUGGING(LEVELING)) SERIAL_ECHOLNPGM("reset_bed_level");
// 2892     #endif
// 2893     set_bed_leveling_enabled(false);
// 2894     #if ENABLED(MESH_BED_LEVELING)
// 2895       if (leveling_is_valid()) {
// 2896         mbl.reset();
// 2897         mbl.has_mesh = false;
// 2898       }
// 2899     #elif ENABLED(AUTO_BED_LEVELING_UBL)
// 2900       ubl.reset();
// 2901     #elif ENABLED(AUTO_BED_LEVELING_BILINEAR)
// 2902       bilinear_start[X_AXIS] = bilinear_start[Y_AXIS] =
// 2903       bilinear_grid_spacing[X_AXIS] = bilinear_grid_spacing[Y_AXIS] = 0;
// 2904       for (uint8_t x = 0; x < GRID_MAX_POINTS_X; x++)
// 2905         for (uint8_t y = 0; y < GRID_MAX_POINTS_Y; y++)
// 2906           z_values[x][y] = NAN;
// 2907     #elif ABL_PLANAR
// 2908       planner.bed_level_matrix.set_to_identity();
// 2909     #endif
// 2910   }
// 2911 
// 2912 #endif // HAS_LEVELING
// 2913 
// 2914 #if ENABLED(AUTO_BED_LEVELING_BILINEAR) || ENABLED(MESH_BED_LEVELING)
// 2915 
// 2916   /**
// 2917    * Enable to produce output in JSON format suitable
// 2918    * for SCAD or JavaScript mesh visualizers.
// 2919    *
// 2920    * Visualize meshes in OpenSCAD using the included script.
// 2921    *
// 2922    *   buildroot/shared/scripts/MarlinMesh.scad
// 2923    */
// 2924   //#define SCAD_MESH_OUTPUT
// 2925 
// 2926   /**
// 2927    * Print calibration results for plotting or manual frame adjustment.
// 2928    */
// 2929   static void print_2d_array(const uint8_t sx, const uint8_t sy, const uint8_t precision, float (*fn)(const uint8_t, const uint8_t)) {
// 2930     #ifndef SCAD_MESH_OUTPUT
// 2931       for (uint8_t x = 0; x < sx; x++) {
// 2932         for (uint8_t i = 0; i < precision + 2 + (x < 10 ? 1 : 0); i++)
// 2933           SERIAL_PROTOCOLCHAR(' ');
// 2934         SERIAL_PROTOCOL((int)x);
// 2935       }
// 2936       SERIAL_EOL();
// 2937     #endif
// 2938     #ifdef SCAD_MESH_OUTPUT
// 2939       SERIAL_PROTOCOLLNPGM("measured_z = ["); // open 2D array
// 2940     #endif
// 2941     for (uint8_t y = 0; y < sy; y++) {
// 2942       #ifdef SCAD_MESH_OUTPUT
// 2943         SERIAL_PROTOCOLPGM(" [");           // open sub-array
// 2944       #else
// 2945         if (y < 10) SERIAL_PROTOCOLCHAR(' ');
// 2946         SERIAL_PROTOCOL((int)y);
// 2947       #endif
// 2948       for (uint8_t x = 0; x < sx; x++) {
// 2949         SERIAL_PROTOCOLCHAR(' ');
// 2950         const float offset = fn(x, y);
// 2951         if (!isnan(offset)) {
// 2952           if (offset >= 0) SERIAL_PROTOCOLCHAR('+');
// 2953           SERIAL_PROTOCOL_F(offset, precision);
// 2954         }
// 2955         else {
// 2956           #ifdef SCAD_MESH_OUTPUT
// 2957             for (uint8_t i = 3; i < precision + 3; i++)
// 2958               SERIAL_PROTOCOLCHAR(' ');
// 2959             SERIAL_PROTOCOLPGM("NAN");
// 2960           #else
// 2961             for (uint8_t i = 0; i < precision + 3; i++)
// 2962               SERIAL_PROTOCOLCHAR(i ? '=' : ' ');
// 2963           #endif
// 2964         }
// 2965         #ifdef SCAD_MESH_OUTPUT
// 2966           if (x < sx - 1) SERIAL_PROTOCOLCHAR(',');
// 2967         #endif
// 2968       }
// 2969       #ifdef SCAD_MESH_OUTPUT
// 2970         SERIAL_PROTOCOLCHAR(' ');
// 2971         SERIAL_PROTOCOLCHAR(']');                     // close sub-array
// 2972         if (y < sy - 1) SERIAL_PROTOCOLCHAR(',');
// 2973       #endif
// 2974       SERIAL_EOL();
// 2975     }
// 2976     #ifdef SCAD_MESH_OUTPUT
// 2977       SERIAL_PROTOCOLPGM("];");                       // close 2D array
// 2978     #endif
// 2979     SERIAL_EOL();
// 2980   }
// 2981 
// 2982 #endif
// 2983 
// 2984 #if ENABLED(AUTO_BED_LEVELING_BILINEAR)
// 2985 
// 2986   /**
// 2987    * Extrapolate a single point from its neighbors
// 2988    */
// 2989   static void extrapolate_one_point(const uint8_t x, const uint8_t y, const int8_t xdir, const int8_t ydir) {
// 2990     #if ENABLED(DEBUG_LEVELING_FEATURE)
// 2991       if (DEBUGGING(LEVELING)) {
// 2992         SERIAL_ECHOPGM("Extrapolate [");
// 2993         if (x < 10) SERIAL_CHAR(' ');
// 2994         SERIAL_ECHO((int)x);
// 2995         SERIAL_CHAR(xdir ? (xdir > 0 ? '+' : '-') : ' ');
// 2996         SERIAL_CHAR(' ');
// 2997         if (y < 10) SERIAL_CHAR(' ');
// 2998         SERIAL_ECHO((int)y);
// 2999         SERIAL_CHAR(ydir ? (ydir > 0 ? '+' : '-') : ' ');
// 3000         SERIAL_CHAR(']');
// 3001       }
// 3002     #endif
// 3003     if (!isnan(z_values[x][y])) {
// 3004       #if ENABLED(DEBUG_LEVELING_FEATURE)
// 3005         if (DEBUGGING(LEVELING)) SERIAL_ECHOLNPGM(" (done)");
// 3006       #endif
// 3007       return;  // Don't overwrite good values.
// 3008     }
// 3009     SERIAL_EOL();
// 3010 
// 3011     // Get X neighbors, Y neighbors, and XY neighbors
// 3012     const uint8_t x1 = x + xdir, y1 = y + ydir, x2 = x1 + xdir, y2 = y1 + ydir;
// 3013     float a1 = z_values[x1][y ], a2 = z_values[x2][y ],
// 3014           b1 = z_values[x ][y1], b2 = z_values[x ][y2],
// 3015           c1 = z_values[x1][y1], c2 = z_values[x2][y2];
// 3016 
// 3017     // Treat far unprobed points as zero, near as equal to far
// 3018     if (isnan(a2)) a2 = 0.0; if (isnan(a1)) a1 = a2;
// 3019     if (isnan(b2)) b2 = 0.0; if (isnan(b1)) b1 = b2;
// 3020     if (isnan(c2)) c2 = 0.0; if (isnan(c1)) c1 = c2;
// 3021 
// 3022     const float a = 2 * a1 - a2, b = 2 * b1 - b2, c = 2 * c1 - c2;
// 3023 
// 3024     // Take the average instead of the median
// 3025     z_values[x][y] = (a + b + c) / 3.0;
// 3026 
// 3027     // Median is robust (ignores outliers).
// 3028     // z_values[x][y] = (a < b) ? ((b < c) ? b : (c < a) ? a : c)
// 3029     //                                : ((c < b) ? b : (a < c) ? a : c);
// 3030   }
// 3031 
// 3032   //Enable this if your SCARA uses 180° of total area
// 3033   //#define EXTRAPOLATE_FROM_EDGE
// 3034 
// 3035   #if ENABLED(EXTRAPOLATE_FROM_EDGE)
// 3036     #if GRID_MAX_POINTS_X < GRID_MAX_POINTS_Y
// 3037       #define HALF_IN_X
// 3038     #elif GRID_MAX_POINTS_Y < GRID_MAX_POINTS_X
// 3039       #define HALF_IN_Y
// 3040     #endif
// 3041   #endif
// 3042 
// 3043   /**
// 3044    * Fill in the unprobed points (corners of circular print surface)
// 3045    * using linear extrapolation, away from the center.
// 3046    */
// 3047   static void extrapolate_unprobed_bed_level() {
// 3048     #ifdef HALF_IN_X
// 3049       constexpr uint8_t ctrx2 = 0, xlen = GRID_MAX_POINTS_X - 1;
// 3050     #else
// 3051       constexpr uint8_t ctrx1 = (GRID_MAX_POINTS_X - 1) / 2, // left-of-center
// 3052                         ctrx2 = (GRID_MAX_POINTS_X) / 2,     // right-of-center
// 3053                         xlen = ctrx1;
// 3054     #endif
// 3055 
// 3056     #ifdef HALF_IN_Y
// 3057       constexpr uint8_t ctry2 = 0, ylen = GRID_MAX_POINTS_Y - 1;
// 3058     #else
// 3059       constexpr uint8_t ctry1 = (GRID_MAX_POINTS_Y - 1) / 2, // top-of-center
// 3060                         ctry2 = (GRID_MAX_POINTS_Y) / 2,     // bottom-of-center
// 3061                         ylen = ctry1;
// 3062     #endif
// 3063 
// 3064     for (uint8_t xo = 0; xo <= xlen; xo++)
// 3065       for (uint8_t yo = 0; yo <= ylen; yo++) {
// 3066         uint8_t x2 = ctrx2 + xo, y2 = ctry2 + yo;
// 3067         #ifndef HALF_IN_X
// 3068           const uint8_t x1 = ctrx1 - xo;
// 3069         #endif
// 3070         #ifndef HALF_IN_Y
// 3071           const uint8_t y1 = ctry1 - yo;
// 3072           #ifndef HALF_IN_X
// 3073             extrapolate_one_point(x1, y1, +1, +1);   //  left-below + +
// 3074           #endif
// 3075           extrapolate_one_point(x2, y1, -1, +1);     // right-below - +
// 3076         #endif
// 3077         #ifndef HALF_IN_X
// 3078           extrapolate_one_point(x1, y2, +1, -1);     //  left-above + -
// 3079         #endif
// 3080         extrapolate_one_point(x2, y2, -1, -1);       // right-above - -
// 3081       }
// 3082 
// 3083   }
// 3084 
// 3085   static void print_bilinear_leveling_grid() {
// 3086     SERIAL_ECHOLNPGM("Bilinear Leveling Grid:");
// 3087     print_2d_array(GRID_MAX_POINTS_X, GRID_MAX_POINTS_Y, 3,
// 3088       [](const uint8_t ix, const uint8_t iy) { return z_values[ix][iy]; }
// 3089     );
// 3090   }
// 3091 
// 3092   #if ENABLED(ABL_BILINEAR_SUBDIVISION)
// 3093 
// 3094     #define ABL_GRID_POINTS_VIRT_X (GRID_MAX_POINTS_X - 1) * (BILINEAR_SUBDIVISIONS) + 1
// 3095     #define ABL_GRID_POINTS_VIRT_Y (GRID_MAX_POINTS_Y - 1) * (BILINEAR_SUBDIVISIONS) + 1
// 3096     #define ABL_TEMP_POINTS_X (GRID_MAX_POINTS_X + 2)
// 3097     #define ABL_TEMP_POINTS_Y (GRID_MAX_POINTS_Y + 2)
// 3098     float z_values_virt[ABL_GRID_POINTS_VIRT_X][ABL_GRID_POINTS_VIRT_Y];
// 3099     int bilinear_grid_spacing_virt[2] = { 0 };
// 3100     float bilinear_grid_factor_virt[2] = { 0 };
// 3101 
// 3102     static void print_bilinear_leveling_grid_virt() {
// 3103       SERIAL_ECHOLNPGM("Subdivided with CATMULL ROM Leveling Grid:");
// 3104       print_2d_array(ABL_GRID_POINTS_VIRT_X, ABL_GRID_POINTS_VIRT_Y, 5,
// 3105         [](const uint8_t ix, const uint8_t iy) { return z_values_virt[ix][iy]; }
// 3106       );
// 3107     }
// 3108 
// 3109     #define LINEAR_EXTRAPOLATION(E, I) ((E) * 2 - (I))
// 3110     float bed_level_virt_coord(const uint8_t x, const uint8_t y) {
// 3111       uint8_t ep = 0, ip = 1;
// 3112       if (!x || x == ABL_TEMP_POINTS_X - 1) {
// 3113         if (x) {
// 3114           ep = GRID_MAX_POINTS_X - 1;
// 3115           ip = GRID_MAX_POINTS_X - 2;
// 3116         }
// 3117         if (WITHIN(y, 1, ABL_TEMP_POINTS_Y - 2))
// 3118           return LINEAR_EXTRAPOLATION(
// 3119             z_values[ep][y - 1],
// 3120             z_values[ip][y - 1]
// 3121           );
// 3122         else
// 3123           return LINEAR_EXTRAPOLATION(
// 3124             bed_level_virt_coord(ep + 1, y),
// 3125             bed_level_virt_coord(ip + 1, y)
// 3126           );
// 3127       }
// 3128       if (!y || y == ABL_TEMP_POINTS_Y - 1) {
// 3129         if (y) {
// 3130           ep = GRID_MAX_POINTS_Y - 1;
// 3131           ip = GRID_MAX_POINTS_Y - 2;
// 3132         }
// 3133         if (WITHIN(x, 1, ABL_TEMP_POINTS_X - 2))
// 3134           return LINEAR_EXTRAPOLATION(
// 3135             z_values[x - 1][ep],
// 3136             z_values[x - 1][ip]
// 3137           );
// 3138         else
// 3139           return LINEAR_EXTRAPOLATION(
// 3140             bed_level_virt_coord(x, ep + 1),
// 3141             bed_level_virt_coord(x, ip + 1)
// 3142           );
// 3143       }
// 3144       return z_values[x - 1][y - 1];
// 3145     }
// 3146 
// 3147     static float bed_level_virt_cmr(const float p[4], const uint8_t i, const float t) {
// 3148       return (
// 3149           p[i-1] * -t * sq(1 - t)
// 3150         + p[i]   * (2 - 5 * sq(t) + 3 * t * sq(t))
// 3151         + p[i+1] * t * (1 + 4 * t - 3 * sq(t))
// 3152         - p[i+2] * sq(t) * (1 - t)
// 3153       ) * 0.5;
// 3154     }
// 3155 
// 3156     static float bed_level_virt_2cmr(const uint8_t x, const uint8_t y, const float &tx, const float &ty) {
// 3157       float row[4], column[4];
// 3158       for (uint8_t i = 0; i < 4; i++) {
// 3159         for (uint8_t j = 0; j < 4; j++) {
// 3160           column[j] = bed_level_virt_coord(i + x - 1, j + y - 1);
// 3161         }
// 3162         row[i] = bed_level_virt_cmr(column, 1, ty);
// 3163       }
// 3164       return bed_level_virt_cmr(row, 1, tx);
// 3165     }
// 3166 
// 3167     void bed_level_virt_interpolate() {
// 3168       bilinear_grid_spacing_virt[X_AXIS] = bilinear_grid_spacing[X_AXIS] / (BILINEAR_SUBDIVISIONS);
// 3169       bilinear_grid_spacing_virt[Y_AXIS] = bilinear_grid_spacing[Y_AXIS] / (BILINEAR_SUBDIVISIONS);
// 3170       bilinear_grid_factor_virt[X_AXIS] = RECIPROCAL(bilinear_grid_spacing_virt[X_AXIS]);
// 3171       bilinear_grid_factor_virt[Y_AXIS] = RECIPROCAL(bilinear_grid_spacing_virt[Y_AXIS]);
// 3172       for (uint8_t y = 0; y < GRID_MAX_POINTS_Y; y++)
// 3173         for (uint8_t x = 0; x < GRID_MAX_POINTS_X; x++)
// 3174           for (uint8_t ty = 0; ty < BILINEAR_SUBDIVISIONS; ty++)
// 3175             for (uint8_t tx = 0; tx < BILINEAR_SUBDIVISIONS; tx++) {
// 3176               if ((ty && y == GRID_MAX_POINTS_Y - 1) || (tx && x == GRID_MAX_POINTS_X - 1))
// 3177                 continue;
// 3178               z_values_virt[x * (BILINEAR_SUBDIVISIONS) + tx][y * (BILINEAR_SUBDIVISIONS) + ty] =
// 3179                 bed_level_virt_2cmr(
// 3180                   x + 1,
// 3181                   y + 1,
// 3182                   (float)tx / (BILINEAR_SUBDIVISIONS),
// 3183                   (float)ty / (BILINEAR_SUBDIVISIONS)
// 3184                 );
// 3185             }
// 3186     }
// 3187   #endif // ABL_BILINEAR_SUBDIVISION
// 3188 
// 3189   // Refresh after other values have been updated
// 3190   void refresh_bed_level() {
// 3191     bilinear_grid_factor[X_AXIS] = RECIPROCAL(bilinear_grid_spacing[X_AXIS]);
// 3192     bilinear_grid_factor[Y_AXIS] = RECIPROCAL(bilinear_grid_spacing[Y_AXIS]);
// 3193     #if ENABLED(ABL_BILINEAR_SUBDIVISION)
// 3194       bed_level_virt_interpolate();
// 3195     #endif
// 3196   }
// 3197 
// 3198 #endif // AUTO_BED_LEVELING_BILINEAR
// 3199 
// 3200 /**
// 3201  * Home an individual linear axis
// 3202  */

        SECTION `.text`:CODE:NOROOT(1)
          CFI Block cfiBlock34 Using cfiCommon0
          CFI Function _Z14do_homing_move8AxisEnumff
        THUMB
// 3203 static void do_homing_move(const AxisEnum axis, const float distance, const float fr_mm_s=0.0) {
_Z14do_homing_move8AxisEnumff:
        PUSH     {R3-R5,LR}
          CFI R14 Frame(CFA, -4)
          CFI R5 Frame(CFA, -8)
          CFI R4 Frame(CFA, -12)
          CFI CFA R13+16
        VPUSH    {D8}
          CFI D8 Frame(CFA, -24)
          CFI CFA R13+24
        SUB      SP,SP,#+8
          CFI CFA R13+32
        VMOV.F32 S16,S0
        VMOV.F32 S17,S1
        LDR.W    R4,??DataTable107
        ADD      R5,R4,R0, LSL #+2
        MOVS     R0,#+0
        STR      R0,[R5, #+36]
// 3204 
// 3205   #if ENABLED(DEBUG_LEVELING_FEATURE)
// 3206     if (DEBUGGING(LEVELING)) {
// 3207       SERIAL_ECHOPAIR(">>> do_homing_move(", axis_codes[axis]);
// 3208       SERIAL_ECHOPAIR(", ", distance);
// 3209       SERIAL_ECHOPAIR(", ", fr_mm_s);
// 3210       SERIAL_CHAR(')');
// 3211       SERIAL_EOL();
// 3212     }
// 3213   #endif
// 3214 
// 3215 //  #if HOMING_Z_WITH_PROBE && ENABLED(BLTOUCH)
// 3216 #if 0    
// 3217     const bool deploy_bltouch = (axis == Z_AXIS && distance < 0);
// 3218     if (deploy_bltouch) set_bltouch_deployed(true);
// 3219   #endif
// 3220 
// 3221   #if QUIET_PROBING
// 3222     if (axis == Z_AXIS) probing_pause(true);
// 3223   #endif
// 3224 
// 3225   // Tell the planner the axis is at 0
// 3226   current_position[axis] = 0;
// 3227 
// 3228   #if IS_SCARA
// 3229     SYNC_PLAN_POSITION_KINEMATIC();
// 3230     current_position[axis] = distance;
// 3231     inverse_kinematics(current_position);
// 3232     planner.buffer_line(delta[A_AXIS], delta[B_AXIS], delta[C_AXIS], current_position[E_AXIS], fr_mm_s ? fr_mm_s : homing_feedrate(axis), active_extruder);
// 3233   #else
// 3234     sync_plan_position();
          CFI FunCall _Z18sync_plan_positionv
        BL       _Z18sync_plan_positionv
// 3235     current_position[axis] = distance;
        VSTR     S16,[R5, #+36]
// 3236     //planner.buffer_line(current_position[X_AXIS], current_position[Y_AXIS], current_position[Z_AXIS], current_position[E_AXIS], fr_mm_s ? fr_mm_s : homing_feedrate(axis), active_extruder);
// 3237     planner.buffer_line(current_position[X_AXIS], current_position[Y_AXIS], current_position[Z_AXIS], current_position[E_AXIS], fr_mm_s ? fr_mm_s : homing_feedrate_mm_s[axis], active_extruder);
        VCMP.F32 S17,#0.0
        FMSTAT   
        BEQ.N    ??do_homing_move_0
        VSTR     S17,[SP, #+0]
        B.N      ??do_homing_move_1
??do_homing_move_0:
        LDR      R0,[R5, #+68]
        STR      R0,[SP, #+0]
??do_homing_move_1:
        LDRB     R2,[R4, #+19]
        ADD      R1,SP,#+0
        ADD      R0,R4,#+48
        VLDR     S2,[R4, #+44]
        VLDR     S1,[R4, #+40]
        VLDR     S0,[R4, #+36]
          CFI FunCall _ZN7Planner11buffer_lineEfffRKfS1_h
        BL       _ZN7Planner11buffer_lineEfffRKfS1_h
// 3238 
// 3239   #endif
// 3240 
// 3241   stepper.synchronize();
          CFI FunCall _ZN7Stepper11synchronizeEv
        BL       _ZN7Stepper11synchronizeEv
// 3242 
// 3243   #if QUIET_PROBING
// 3244     if (axis == Z_AXIS) probing_pause(false);
// 3245   #endif
// 3246 
// 3247 //  #if HOMING_Z_WITH_PROBE && ENABLED(BLTOUCH)
// 3248 #if 0    
// 3249     if (deploy_bltouch) set_bltouch_deployed(false);
// 3250   #endif
// 3251 
// 3252   endstops.hit_on_purpose();
          CFI FunCall _ZN8Endstops14hit_on_purposeEv
        BL       _ZN8Endstops14hit_on_purposeEv
// 3253 
// 3254   #if ENABLED(DEBUG_LEVELING_FEATURE)
// 3255     if (DEBUGGING(LEVELING)) {
// 3256       SERIAL_ECHOPAIR("<<< do_homing_move(", axis_codes[axis]);
// 3257       SERIAL_CHAR(')');
// 3258       SERIAL_EOL();
// 3259     }
// 3260   #endif
// 3261 }
        ADD      SP,SP,#+8
          CFI CFA R13+24
        VPOP     {D8}
          CFI D8 SameValue
          CFI CFA R13+16
        POP      {R0,R4,R5,PC}    ;; return
          CFI EndBlock cfiBlock34
// 3262 
// 3263 /**
// 3264  * TMC2130 specific sensorless homing using stallGuard2.
// 3265  * stallGuard2 only works when in spreadCycle mode.
// 3266  * spreadCycle and stealthChop are mutually exclusive.
// 3267  */
// 3268 #if ENABLED(SENSORLESS_HOMING)
// 3269   template<typename TMC>
// 3270   void tmc_sensorless_homing(TMC &st, bool enable=true) {
// 3271     #if ENABLED(STEALTHCHOP)
// 3272       if (enable) {
// 3273         st.coolstep_min_speed(1024UL * 1024UL - 1UL);
// 3274         st.stealthChop(0);
// 3275       }
// 3276       else {
// 3277         st.coolstep_min_speed(0);
// 3278         st.stealthChop(1);
// 3279       }
// 3280     #endif
// 3281 
// 3282     st.diag1_stall(enable ? 1 : 0);
// 3283   }
// 3284 #endif
// 3285 
// 3286 /**
// 3287  * Home an individual "raw axis" to its endstop.
// 3288  * This applies to XYZ on Cartesian and Core robots, and
// 3289  * to the individual ABC steppers on DELTA and SCARA.
// 3290  *
// 3291  * At the end of the procedure the axis is marked as
// 3292  * homed and the current position of that axis is updated.
// 3293  * Kinematic robots should wait till all axes are homed
// 3294  * before updating the current position.
// 3295  */
// 3296 
// 3297 #define HOMEAXIS(LETTER) homeaxis(LETTER##_AXIS)
// 3298 

        SECTION `.text`:CODE:NOROOT(2)
          CFI Block cfiBlock35 Using cfiCommon0
          CFI Function _Z8homeaxis8AxisEnum
        THUMB
// 3299 static void homeaxis(const AxisEnum axis) {
_Z8homeaxis8AxisEnum:
        PUSH     {R3-R9,LR}
          CFI R14 Frame(CFA, -4)
          CFI R9 Frame(CFA, -8)
          CFI R8 Frame(CFA, -12)
          CFI R7 Frame(CFA, -16)
          CFI R6 Frame(CFA, -20)
          CFI R5 Frame(CFA, -24)
          CFI R4 Frame(CFA, -28)
          CFI CFA R13+32
        VPUSH    {D8}
          CFI D8 Frame(CFA, -40)
          CFI CFA R13+40
        MOV      R4,R0
// 3300 
// 3301   #if IS_SCARA
// 3302     // Only Z homing (with probe) is permitted
// 3303     if (axis != Z_AXIS) { BUZZ(100, 880); return; }
// 3304   #else
// 3305     #define CAN_HOME(A) \ 
// 3306       (axis == A##_AXIS && ((A##_MIN_PIN > -1 && A##_HOME_DIR < 0) || (A##_MAX_PIN > -1 && A##_HOME_DIR > 0)))
// 3307     if (!CAN_HOME(X) && !CAN_HOME(Y) && !CAN_HOME(Z)) return;
        MOV      R5,R4
        CMP      R5,#+2
        BNE.N    ??homeaxis_0
        LDR.N    R0,??DataTable104_8
        LDRSB    R0,[R0, #+1]
        CMP      R0,#+0
        BEQ.N    ??homeaxis_0
// 3308   #endif
// 3309 
// 3310   #if ENABLED(DEBUG_LEVELING_FEATURE)
// 3311     if (DEBUGGING(LEVELING)) {
// 3312       SERIAL_ECHOPAIR(">>> homeaxis(", axis_codes[axis]);
// 3313       SERIAL_CHAR(')');
// 3314       SERIAL_EOL();
// 3315     }
// 3316   #endif
// 3317 
// 3318   const int axis_home_dir =
// 3319     #if ENABLED(DUAL_X_CARRIAGE)
// 3320       (axis == X_AXIS) ? x_home_dir(active_extruder) :
// 3321     #endif
// 3322     home_dir(axis);
        MOV      R0,R4
          CFI FunCall _Z8home_dir8AxisEnum
        BL       _Z8home_dir8AxisEnum
        VMOV     S17,R0
// 3323 
// 3324   // Homing Z towards the bed? Deploy the Z probe or endstop.
// 3325   #if HOMING_Z_WITH_PROBE
// 3326     if (axis == Z_AXIS && DEPLOY_PROBE()) return;
// 3327   #endif
// 3328 
// 3329   // Set flags for X, Y, Z motor locking
// 3330   #if ENABLED(X_DUAL_ENDSTOPS)
// 3331     if (axis == X_AXIS) stepper.set_homing_flag_x(true);
// 3332   #endif
// 3333   #if ENABLED(Y_DUAL_ENDSTOPS)
// 3334     if (axis == Y_AXIS) stepper.set_homing_flag_y(true);
// 3335   #endif
// 3336   #if ENABLED(Z_DUAL_ENDSTOPS)
// 3337     if (axis == Z_AXIS) stepper.set_homing_flag_z(true);
// 3338   #endif
// 3339 
// 3340   // Disable stealthChop if used. Enable diag1 pin on driver.
// 3341   #if ENABLED(SENSORLESS_HOMING)
// 3342     #if ENABLED(X_IS_TMC2130)
// 3343       if (axis == X_AXIS) tmc_sensorless_homing(stepperX);
// 3344     #endif
// 3345     #if ENABLED(Y_IS_TMC2130)
// 3346       if (axis == Y_AXIS) tmc_sensorless_homing(stepperY);
// 3347     #endif
// 3348   #endif
// 3349 
// 3350   // Fast move towards endstop until triggered
// 3351   #if ENABLED(DEBUG_LEVELING_FEATURE)
// 3352     if (DEBUGGING(LEVELING)) SERIAL_ECHOLNPGM("Home 1 Fast:");
// 3353   #endif
// 3354   mksdlp.quick_stop_ena = false;
        LDR.N    R6,??DataTable104_6
        MOVS     R0,#+0
        STRB     R0,[R6, #+3253]
// 3355   do_homing_move(axis, 1.5 * max_length(axis) * axis_home_dir);
        MOV      R0,R4
          CFI FunCall _Z10max_length8AxisEnum
        BL       _Z10max_length8AxisEnum
        VLDR.W   S1,??DataTable103_1  ;; 0x0
        VMOV.F32 S16,S1
        VMOV     R0,S0
          CFI FunCall __aeabi_f2d
        BL       __aeabi_f2d
        MOVS     R2,#+0
        LDR.W    R3,??DataTable111_6  ;; 0x3ff80000
          CFI FunCall __aeabi_dmul
        BL       __aeabi_dmul
        MOV      R8,R0
        MOV      R9,R1
        VMOV     R0,S17
          CFI FunCall __aeabi_i2d
        BL       __aeabi_i2d
        MOV      R2,R8
        MOV      R3,R9
          CFI FunCall __aeabi_dmul
        BL       __aeabi_dmul
          CFI FunCall __aeabi_d2f
        BL       __aeabi_d2f
        VMOV     S0,R0
        VMOV.F32 S1,S16
        MOV      R0,R4
          CFI FunCall _Z14do_homing_move8AxisEnumff
        BL       _Z14do_homing_move8AxisEnumff
// 3356   
// 3357   mksdlp.buzzer_tone(500,100,2);
        ADDW     R7,R6,#+2500
        MOVS     R3,#+2
        MOVS     R2,#+100
        MOV      R1,#+500
        MOV      R0,R7
          CFI FunCall _ZN7MKS_DLP11buzzer_toneEtth
        BL       _ZN7MKS_DLP11buzzer_toneEtth
// 3358   // When homing Z with probe respect probe clearance
// 3359   const float bump = axis_home_dir * (
// 3360     //#if HOMING_Z_WITH_PROBE
// 3361 #if 0                                 
// 3362       (axis == Z_AXIS) ? max(Z_CLEARANCE_BETWEEN_PROBES, home_bump_mm(Z_AXIS)) :
// 3363     #endif
// 3364     home_bump_mm(axis)
// 3365   );
        VCVT.F32.S32 S16,S17
        MOV      R0,R4
          CFI FunCall _Z12home_bump_mm8AxisEnum
        BL       _Z12home_bump_mm8AxisEnum
        VMUL.F32 S16,S16,S0
// 3366 
// 3367   // If a second homing move is configured...
// 3368   if (bump) {
        VCMP.F32 S16,#0.0
        FMSTAT   
        BEQ.N    ??homeaxis_1
// 3369     // Move away from the endstop by the axis HOME_BUMP_MM
// 3370     #if ENABLED(DEBUG_LEVELING_FEATURE)
// 3371       if (DEBUGGING(LEVELING)) SERIAL_ECHOLNPGM("Move Away:");
// 3372     #endif
// 3373 	if(!mksdlp.quick_stop_ena)
        LDRB     R0,[R6, #+3253]
        CMP      R0,#+0
        BNE.N    ??homeaxis_2
// 3374 		{
// 3375 	    do_homing_move(axis, -bump);
        VLDR.W   S1,??DataTable103_1  ;; 0x0
        VNEG.F32 S0,S16
        MOV      R0,R4
          CFI FunCall _Z14do_homing_move8AxisEnumff
        BL       _Z14do_homing_move8AxisEnumff
// 3376 		}
// 3377     // Slow move towards endstop until triggered
// 3378     #if ENABLED(DEBUG_LEVELING_FEATURE)
// 3379       if (DEBUGGING(LEVELING)) SERIAL_ECHOLNPGM("Home 2 Slow:");
// 3380     #endif
// 3381 	if(!mksdlp.quick_stop_ena)
??homeaxis_2:
        LDRB     R0,[R6, #+3253]
        CMP      R0,#+0
        BNE.N    ??homeaxis_1
// 3382 		{
// 3383   	  	do_homing_move(axis, 2 * bump, get_homing_bump_feedrate(axis));
        MOV      R0,R4
          CFI FunCall _Z24get_homing_bump_feedrate8AxisEnum
        BL       _Z24get_homing_bump_feedrate8AxisEnum
        VMOV.F32 S1,S0
        VMOV.F32 S0,#2.0
        VMUL.F32 S0,S16,S0
        MOV      R0,R4
          CFI FunCall _Z14do_homing_move8AxisEnumff
        BL       _Z14do_homing_move8AxisEnumff
// 3384 		mksdlp.buzzer_tone(500,100,2);
        MOVS     R3,#+2
        MOVS     R2,#+100
        MOV      R1,#+500
        MOV      R0,R7
          CFI FunCall _ZN7MKS_DLP11buzzer_toneEtth
        BL       _ZN7MKS_DLP11buzzer_toneEtth
// 3385 		}
// 3386   }
// 3387 
// 3388   /**
// 3389    * Home axes that have dual endstops... differently
// 3390    */
// 3391   #if ENABLED(X_DUAL_ENDSTOPS) || ENABLED(Y_DUAL_ENDSTOPS) || ENABLED(Z_DUAL_ENDSTOPS)
// 3392     const bool pos_dir = axis_home_dir > 0;
// 3393     #if ENABLED(X_DUAL_ENDSTOPS)
// 3394       if (axis == X_AXIS) {
// 3395         const bool lock_x1 = pos_dir ? (x_endstop_adj > 0) : (x_endstop_adj < 0);
// 3396         const float adj = FABS(x_endstop_adj);
// 3397         if (lock_x1) stepper.set_x_lock(true); else stepper.set_x2_lock(true);
// 3398         do_homing_move(axis, pos_dir ? -adj : adj);
// 3399         if (lock_x1) stepper.set_x_lock(false); else stepper.set_x2_lock(false);
// 3400         stepper.set_homing_flag_x(false);
// 3401       }
// 3402     #endif
// 3403     #if ENABLED(Y_DUAL_ENDSTOPS)
// 3404       if (axis == Y_AXIS) {
// 3405         const bool lock_y1 = pos_dir ? (y_endstop_adj > 0) : (y_endstop_adj < 0);
// 3406         const float adj = FABS(y_endstop_adj);
// 3407         if (lock_y1) stepper.set_y_lock(true); else stepper.set_y2_lock(true);
// 3408         do_homing_move(axis, pos_dir ? -adj : adj);
// 3409         if (lock_y1) stepper.set_y_lock(false); else stepper.set_y2_lock(false);
// 3410         stepper.set_homing_flag_y(false);
// 3411       }
// 3412     #endif
// 3413     #if ENABLED(Z_DUAL_ENDSTOPS)
// 3414       if (axis == Z_AXIS) {
// 3415         const bool lock_z1 = pos_dir ? (z_endstop_adj > 0) : (z_endstop_adj < 0);
// 3416         const float adj = FABS(z_endstop_adj);
// 3417         if (lock_z1) stepper.set_z_lock(true); else stepper.set_z2_lock(true);
// 3418         do_homing_move(axis, pos_dir ? -adj : adj);
// 3419         if (lock_z1) stepper.set_z_lock(false); else stepper.set_z2_lock(false);
// 3420         stepper.set_homing_flag_z(false);
// 3421       }
// 3422     #endif
// 3423   #endif
// 3424 
// 3425   #if IS_SCARA
// 3426 
// 3427     set_axis_is_at_home(axis);
// 3428     SYNC_PLAN_POSITION_KINEMATIC();
// 3429 
// 3430   #elif ENABLED(DELTA)
// 3431 
// 3432     // Delta has already moved all three towers up in G28
// 3433     // so here it re-homes each tower in turn.
// 3434     // Delta homing treats the axes as normal linear axes.
// 3435 
// 3436     // retrace by the amount specified in delta_endstop_adj + additional 0.1mm in order to have minimum steps
// 3437     if (delta_endstop_adj[axis] * Z_HOME_DIR <= 0) {
// 3438       #if ENABLED(DEBUG_LEVELING_FEATURE)
// 3439         if (DEBUGGING(LEVELING)) SERIAL_ECHOLNPGM("delta_endstop_adj:");
// 3440       #endif
// 3441       do_homing_move(axis, delta_endstop_adj[axis] - 0.1 * Z_HOME_DIR);
// 3442     }
// 3443 
// 3444   #else
// 3445 
// 3446     // For cartesian/core machines,
// 3447     // set the axis to its home position
// 3448     axis_homed[Z_AXIS]=false;
??homeaxis_1:
        LDR.W    R7,??DataTable107
        MOVS     R0,#+0
        STRB     R0,[R7, #+6]
// 3449   if(!mksdlp.quick_stop_ena)
        LDRB     R0,[R6, #+3253]
        CMP      R0,#+0
        BNE.N    ??homeaxis_0
// 3450   	{
// 3451     set_axis_is_at_home(axis);
        MOV      R0,R4
          CFI FunCall _Z19set_axis_is_at_home8AxisEnum
        BL       _Z19set_axis_is_at_home8AxisEnum
// 3452     sync_plan_position();
          CFI FunCall _Z18sync_plan_positionv
        BL       _Z18sync_plan_positionv
// 3453     destination[axis] = current_position[axis];
        ADD      R0,R7,R5, LSL #+2
        LDR      R1,[R0, #+36]
        STR      R1,[R0, #+52]
// 3454   	}
// 3455     #if ENABLED(DEBUG_LEVELING_FEATURE)
// 3456       if (DEBUGGING(LEVELING)) DEBUG_POS("> AFTER set_axis_is_at_home", current_position);
// 3457     #endif
// 3458 
// 3459   #endif
// 3460 
// 3461   // Re-enable stealthChop if used. Disable diag1 pin on driver.
// 3462   #if ENABLED(SENSORLESS_HOMING)
// 3463     #if ENABLED(X_IS_TMC2130)
// 3464       if (axis == X_AXIS) tmc_sensorless_homing(stepperX, false);
// 3465     #endif
// 3466     #if ENABLED(Y_IS_TMC2130)
// 3467       if (axis == Y_AXIS) tmc_sensorless_homing(stepperY, false);
// 3468     #endif
// 3469   #endif
// 3470 
// 3471   // Put away the Z probe
// 3472   //#if HOMING_Z_WITH_PROBE
// 3473 #if 0      
// 3474     if (axis == Z_AXIS && STOW_PROBE()) return;
// 3475   #endif
// 3476 
// 3477   #if ENABLED(DEBUG_LEVELING_FEATURE)
// 3478     if (DEBUGGING(LEVELING)) {
// 3479       SERIAL_ECHOPAIR("<<< homeaxis(", axis_codes[axis]);
// 3480       SERIAL_CHAR(')');
// 3481       SERIAL_EOL();
// 3482     }
// 3483   #endif
// 3484 } // homeaxis()
??homeaxis_0:
        VPOP     {D8}
          CFI D8 SameValue
          CFI CFA R13+32
        POP      {R0,R4-R9,PC}    ;; return
          CFI EndBlock cfiBlock35
// 3485 
// 3486 #if ENABLED(FWRETRACT)
// 3487 
// 3488   /**
// 3489    * Retract or recover according to firmware settings
// 3490    *
// 3491    * This function handles retract/recover moves for G10 and G11,
// 3492    * plus auto-retract moves sent from G0/G1 when E-only moves are done.
// 3493    *
// 3494    * To simplify the logic, doubled retract/recover moves are ignored.
// 3495    *
// 3496    * Note: Z lift is done transparently to the planner. Aborting
// 3497    *       a print between G10 and G11 may corrupt the Z position.
// 3498    *
// 3499    * Note: Auto-retract will apply the set Z hop in addition to any Z hop
// 3500    *       included in the G-code. Use M207 Z0 to to prevent double hop.
// 3501    */
// 3502   void retract(const bool retracting
// 3503     #if EXTRUDERS > 1
// 3504       , bool swapping = false
// 3505     #endif
// 3506   ) {
// 3507 
// 3508     static float hop_amount = 0.0;  // Total amount lifted, for use in recover
// 3509 
// 3510     // Prevent two retracts or recovers in a row
// 3511     if (retracted[active_extruder] == retracting) return;
// 3512 
// 3513     // Prevent two swap-retract or recovers in a row
// 3514     #if EXTRUDERS > 1
// 3515       // Allow G10 S1 only after G10
// 3516       if (swapping && retracted_swap[active_extruder] == retracting) return;
// 3517       // G11 priority to recover the long retract if activated
// 3518       if (!retracting) swapping = retracted_swap[active_extruder];
// 3519     #else
// 3520       const bool swapping = false;
// 3521     #endif
// 3522 
// 3523     /* // debugging
// 3524       SERIAL_ECHOLNPAIR("retracting ", retracting);
// 3525       SERIAL_ECHOLNPAIR("swapping ", swapping);
// 3526       SERIAL_ECHOLNPAIR("active extruder ", active_extruder);
// 3527       for (uint8_t i = 0; i < EXTRUDERS; ++i) {
// 3528         SERIAL_ECHOPAIR("retracted[", i);
// 3529         SERIAL_ECHOLNPAIR("] ", retracted[i]);
// 3530         SERIAL_ECHOPAIR("retracted_swap[", i);
// 3531         SERIAL_ECHOLNPAIR("] ", retracted_swap[i]);
// 3532       }
// 3533       SERIAL_ECHOLNPAIR("current_position[z] ", current_position[Z_AXIS]);
// 3534       SERIAL_ECHOLNPAIR("hop_amount ", hop_amount);
// 3535     //*/
// 3536 
// 3537     const bool has_zhop = retract_zlift > 0.01;     // Is there a hop set?
// 3538     const float old_feedrate_mm_s = feedrate_mm_s;
// 3539 
// 3540     // The current position will be the destination for E and Z moves
// 3541     set_destination_from_current();
// 3542     stepper.synchronize();  // Wait for buffered moves to complete
// 3543 
// 3544     const float renormalize = 1.0 / planner.e_factor[active_extruder];
// 3545 
// 3546     if (retracting) {
// 3547       // Retract by moving from a faux E position back to the current E position
// 3548       feedrate_mm_s = retract_feedrate_mm_s;
// 3549       current_position[E_AXIS] += (swapping ? swap_retract_length : retract_length) * renormalize;
// 3550       sync_plan_position_e();
// 3551       prepare_move_to_destination();
// 3552 
// 3553       // Is a Z hop set, and has the hop not yet been done?
// 3554       if (has_zhop && !hop_amount) {
// 3555         hop_amount += retract_zlift;                        // Carriage is raised for retraction hop
// 3556         feedrate_mm_s = planner.max_feedrate_mm_s[Z_AXIS];  // Z feedrate to max
// 3557         current_position[Z_AXIS] -= retract_zlift;          // Pretend current pos is lower. Next move raises Z.
// 3558         SYNC_PLAN_POSITION_KINEMATIC();                     // Set the planner to the new position
// 3559         prepare_move_to_destination();                      // Raise up to the old current pos
// 3560         feedrate_mm_s = retract_feedrate_mm_s;              // Restore feedrate
// 3561       }
// 3562     }
// 3563     else {
// 3564       // If a hop was done and Z hasn't changed, undo the Z hop
// 3565       if (hop_amount) {
// 3566         current_position[Z_AXIS] += retract_zlift;          // Pretend current pos is lower. Next move raises Z.
// 3567         SYNC_PLAN_POSITION_KINEMATIC();                     // Set the planner to the new position
// 3568         feedrate_mm_s = planner.max_feedrate_mm_s[Z_AXIS];  // Z feedrate to max
// 3569         prepare_move_to_destination();                      // Raise up to the old current pos
// 3570         hop_amount = 0.0;                                   // Clear hop
// 3571       }
// 3572 
// 3573       // A retract multiplier has been added here to get faster swap recovery
// 3574       feedrate_mm_s = swapping ? swap_retract_recover_feedrate_mm_s : retract_recover_feedrate_mm_s;
// 3575 
// 3576       const float move_e = swapping ? swap_retract_length + swap_retract_recover_length : retract_length + retract_recover_length;
// 3577       current_position[E_AXIS] -= move_e * renormalize;
// 3578       sync_plan_position_e();
// 3579       prepare_move_to_destination();                        // Recover E
// 3580     }
// 3581 
// 3582     feedrate_mm_s = old_feedrate_mm_s;                      // Restore original feedrate
// 3583 
// 3584     retracted[active_extruder] = retracting;                // Active extruder now retracted / recovered
// 3585 
// 3586     // If swap retract/recover update the retracted_swap flag too
// 3587     #if EXTRUDERS > 1
// 3588       if (swapping) retracted_swap[active_extruder] = retracting;
// 3589     #endif
// 3590 
// 3591     /* // debugging
// 3592       SERIAL_ECHOLNPAIR("retracting ", retracting);
// 3593       SERIAL_ECHOLNPAIR("swapping ", swapping);
// 3594       SERIAL_ECHOLNPAIR("active_extruder ", active_extruder);
// 3595       for (uint8_t i = 0; i < EXTRUDERS; ++i) {
// 3596         SERIAL_ECHOPAIR("retracted[", i);
// 3597         SERIAL_ECHOLNPAIR("] ", retracted[i]);
// 3598         SERIAL_ECHOPAIR("retracted_swap[", i);
// 3599         SERIAL_ECHOLNPAIR("] ", retracted_swap[i]);
// 3600       }
// 3601       SERIAL_ECHOLNPAIR("current_position[z] ", current_position[Z_AXIS]);
// 3602       SERIAL_ECHOLNPAIR("hop_amount ", hop_amount);
// 3603     //*/
// 3604 
// 3605   }
// 3606 
// 3607 #endif // FWRETRACT
// 3608 
// 3609 #if ENABLED(MIXING_EXTRUDER)
// 3610 
// 3611   void normalize_mix() {
// 3612     float mix_total = 0.0;
// 3613     for (uint8_t i = 0; i < MIXING_STEPPERS; i++) mix_total += RECIPROCAL(mixing_factor[i]);
// 3614     // Scale all values if they don't add up to ~1.0
// 3615     if (!NEAR(mix_total, 1.0)) {
// 3616       SERIAL_PROTOCOLLNPGM("Warning: Mix factors must add up to 1.0. Scaling.");
// 3617       for (uint8_t i = 0; i < MIXING_STEPPERS; i++) mixing_factor[i] *= mix_total;
// 3618     }
// 3619   }
// 3620 
// 3621   #if ENABLED(DIRECT_MIXING_IN_G1)
// 3622     // Get mixing parameters from the GCode
// 3623     // The total "must" be 1.0 (but it will be normalized)
// 3624     // If no mix factors are given, the old mix is preserved
// 3625     void gcode_get_mix() {
// 3626       const char* mixing_codes = "ABCDHI";
// 3627       byte mix_bits = 0;
// 3628       for (uint8_t i = 0; i < MIXING_STEPPERS; i++) {
// 3629         if (parser.seenval(mixing_codes[i])) {
// 3630           SBI(mix_bits, i);
// 3631           float v = parser.value_float();
// 3632           NOLESS(v, 0.0);
// 3633           mixing_factor[i] = RECIPROCAL(v);
// 3634         }
// 3635       }
// 3636       // If any mixing factors were included, clear the rest
// 3637       // If none were included, preserve the last mix
// 3638       if (mix_bits) {
// 3639         for (uint8_t i = 0; i < MIXING_STEPPERS; i++)
// 3640           if (!TEST(mix_bits, i)) mixing_factor[i] = 0.0;
// 3641         normalize_mix();
// 3642       }
// 3643     }
// 3644   #endif
// 3645 
// 3646 #endif
// 3647 
// 3648 /**
// 3649  * ***************************************************************************
// 3650  * ***************************** G-CODE HANDLING *****************************
// 3651  * ***************************************************************************
// 3652  */
// 3653 
// 3654 /**
// 3655  * Set XYZE destination and feedrate from the current GCode command
// 3656  *
// 3657  *  - Set destination from included axis codes
// 3658  *  - Set to current for missing axis codes
// 3659  *  - Set the feedrate, if included
// 3660  */

        SECTION `.text`:CODE:NOROOT(2)
          CFI Block cfiBlock36 Using cfiCommon0
          CFI Function _Z21gcode_get_destinationv
        THUMB
// 3661 void gcode_get_destination() {
_Z21gcode_get_destinationv:
        PUSH     {R4-R6,LR}
          CFI R14 Frame(CFA, -4)
          CFI R6 Frame(CFA, -8)
          CFI R5 Frame(CFA, -12)
          CFI R4 Frame(CFA, -16)
          CFI CFA R13+16
// 3662   LOOP_XYZE(i) {
        MOVS     R4,#+0
        LDR.W    R6,??DataTable107
        B.N      ??gcode_get_destination_0
// 3663     if (parser.seen(axis_codes[i])) {
// 3664       const float v = parser.value_axis_units((AxisEnum)i) + (axis_relative_modes[i] || relative_mode ? current_position[i] : 0);
// 3665       //destination[i] = i == E_AXIS ? v : LOGICAL_TO_NATIVE(v, i);
// 3666       destination[i] = v;
// 3667     }
// 3668     else
// 3669       destination[i] = current_position[i];
??gcode_get_destination_1:
        LDR      R0,[R5, #+36]
        STR      R0,[R5, #+52]
??gcode_get_destination_2:
        ADDS     R4,R4,#+1
??gcode_get_destination_0:
        CMP      R4,#+4
        BGE.N    ??gcode_get_destination_3
        ADD      R5,R6,R4, LSL #+2
        ADR.W    R0,axis_codes
        LDRSB    R0,[R4, R0]
          CFI FunCall _ZN11GCodeParser4seenEc
        BL       _ZN11GCodeParser4seenEc
        CMP      R0,#+0
        BEQ.N    ??gcode_get_destination_1
        MOV      R0,R4
        SXTB     R0,R0
          CFI FunCall _ZN11GCodeParser16value_axis_unitsE8AxisEnum
        BL       _ZN11GCodeParser16value_axis_unitsE8AxisEnum
        LDRB     R0,[R4, R6]
        LDRB     R1,[R6, #+20]
        ORRS     R0,R1,R0
        BEQ.N    ??gcode_get_destination_4
        VLDR     S1,[R5, #+36]
        B.N      ??gcode_get_destination_5
??gcode_get_destination_4:
        VLDR.W   S1,??DataTable103_1  ;; 0x0
??gcode_get_destination_5:
        VADD.F32 S0,S0,S1
        VSTR     S0,[R5, #+52]
        B.N      ??gcode_get_destination_2
// 3670   }
// 3671 
// 3672   if (parser.linearval('F') > 0.0)
??gcode_get_destination_3:
        VLDR.W   S0,??DataTable103_1  ;; 0x0
        MOVS     R0,#+70
          CFI FunCall _ZN11GCodeParser9linearvalEcf
        BL       _ZN11GCodeParser9linearvalEcf
        VCMP.F32 S0,#0.0
        FMSTAT   
        BLE.N    ??gcode_get_destination_6
// 3673     feedrate_mm_s = MMM_TO_MMS(parser.value_feedrate());
          CFI FunCall _ZN11GCodeParser14value_feedrateEv
        BL       _ZN11GCodeParser14value_feedrateEv
        VLDR.W   S1,??DataTable104  ;; 0x42700000
        VDIV.F32 S0,S0,S1
        MOV      R0,R6
        VSTR     S0,[R0, #+120]
// 3674 
// 3675   #if ENABLED(PRINTCOUNTER)
// 3676     if (!DEBUGGING(DRYRUN))
// 3677       print_job_timer.incFilamentUsed(destination[E_AXIS] - current_position[E_AXIS]);
// 3678   #endif
// 3679 
// 3680   // Get ABCDHI mixing factors
// 3681   #if ENABLED(MIXING_EXTRUDER) && ENABLED(DIRECT_MIXING_IN_G1)
// 3682     gcode_get_mix();
// 3683   #endif
// 3684 }
??gcode_get_destination_6:
        POP      {R4-R6,PC}       ;; return
          CFI EndBlock cfiBlock36

        SECTION `.text`:CODE:NOROOT(2)
        SECTION_TYPE SHT_PROGBITS, 0
        DATA
axis_codes:
        DC8 88, 89, 90, 69
// 3685 
// 3686 #if ENABLED(HOST_KEEPALIVE_FEATURE)
// 3687 
// 3688   /**
// 3689    * Output a "busy" message at regular intervals
// 3690    * while the machine is not accepting commands.
// 3691    */
// 3692   void host_keepalive() {
// 3693     const millis_t ms = millis();
// 3694     if (host_keepalive_interval && busy_state != NOT_BUSY) {
// 3695       if (PENDING(ms, next_busy_signal_ms)) return;
// 3696       switch (busy_state) {
// 3697         case IN_HANDLER:
// 3698         case IN_PROCESS:
// 3699           SERIAL_ECHO_START();
// 3700           SERIAL_ECHOLNPGM(MSG_BUSY_PROCESSING);
// 3701           break;
// 3702         case PAUSED_FOR_USER:
// 3703           SERIAL_ECHO_START();
// 3704           SERIAL_ECHOLNPGM(MSG_BUSY_PAUSED_FOR_USER);
// 3705           break;
// 3706         case PAUSED_FOR_INPUT:
// 3707           SERIAL_ECHO_START();
// 3708           SERIAL_ECHOLNPGM(MSG_BUSY_PAUSED_FOR_INPUT);
// 3709           break;
// 3710         default:
// 3711           break;
// 3712       }
// 3713     }
// 3714     next_busy_signal_ms = ms + host_keepalive_interval * 1000UL;
// 3715   }
// 3716 
// 3717 #endif // HOST_KEEPALIVE_FEATURE
// 3718 
// 3719 
// 3720 /**************************************************
// 3721  ***************** GCode Handlers *****************
// 3722  **************************************************/
// 3723 
// 3724 #if ENABLED(NO_MOTION_BEFORE_HOMING)
// 3725   #define G0_G1_CONDITION !axis_unhomed_error(parser.seen('X'), parser.seen('Y'), parser.seen('Z'))
// 3726 #else
// 3727   #define G0_G1_CONDITION true
// 3728 #endif
// 3729 
// 3730 /**
// 3731  * G0, G1: Coordinated movement of X Y Z E axes
// 3732  */
// 3733 inline void gcode_G0_G1(
// 3734   #if IS_SCARA
// 3735     bool fast_move=false
// 3736   #endif
// 3737 ) {
// 3738   if (IsRunning() && G0_G1_CONDITION) {
// 3739     gcode_get_destination(); // For X Y Z E F
// 3740 
// 3741     #if ENABLED(FWRETRACT)
// 3742       if (MIN_AUTORETRACT <= MAX_AUTORETRACT) {
// 3743         // When M209 Autoretract is enabled, convert E-only moves to firmware retract/recover moves
// 3744         if (autoretract_enabled && parser.seen('E') && !(parser.seen('X') || parser.seen('Y') || parser.seen('Z'))) {
// 3745           const float echange = destination[E_AXIS] - current_position[E_AXIS];
// 3746           // Is this a retract or recover move?
// 3747           if (WITHIN(FABS(echange), MIN_AUTORETRACT, MAX_AUTORETRACT) && retracted[active_extruder] == (echange > 0.0)) {
// 3748             current_position[E_AXIS] = destination[E_AXIS]; // Hide a G1-based retract/recover from calculations
// 3749             sync_plan_position_e();                         // AND from the planner
// 3750             return retract(echange < 0.0);                  // Firmware-based retract/recover (double-retract ignored)
// 3751           }
// 3752         }
// 3753       }
// 3754     #endif // FWRETRACT
// 3755 
// 3756     #if IS_SCARA
// 3757       fast_move ? prepare_uninterpolated_move_to_destination() : prepare_move_to_destination();
// 3758     #else
// 3759       prepare_move_to_destination();
// 3760     #endif
// 3761 
// 3762     #if ENABLED(NANODLP_Z_SYNC)
// 3763       #if ENABLED(NANODLP_ALL_AXIS)
// 3764         #define _MOVE_SYNC true                 // For any move wait and output sync message
// 3765       #else
// 3766         #define _MOVE_SYNC parser.seenval('Z')  // Only for Z move
// 3767       #endif
// 3768       if (_MOVE_SYNC) {
// 3769         stepper.synchronize();
// 3770         SERIAL_ECHOLNPGM(MSG_Z_MOVE_COMP);
// 3771       }
// 3772     #endif
// 3773   }
// 3774 }
// 3775 
// 3776 /**
// 3777  * G2: Clockwise Arc
// 3778  * G3: Counterclockwise Arc
// 3779  *
// 3780  * This command has two forms: IJ-form and R-form.
// 3781  *
// 3782  *  - I specifies an X offset. J specifies a Y offset.
// 3783  *    At least one of the IJ parameters is required.
// 3784  *    X and Y can be omitted to do a complete circle.
// 3785  *    The given XY is not error-checked. The arc ends
// 3786  *     based on the angle of the destination.
// 3787  *    Mixing I or J with R will throw an error.
// 3788  *
// 3789  *  - R specifies the radius. X or Y is required.
// 3790  *    Omitting both X and Y will throw an error.
// 3791  *    X or Y must differ from the current XY.
// 3792  *    Mixing R with I or J will throw an error.
// 3793  *
// 3794  *  - P specifies the number of full circles to do
// 3795  *    before the specified arc move.
// 3796  *
// 3797  *  Examples:
// 3798  *
// 3799  *    G2 I10           ; CW circle centered at X+10
// 3800  *    G3 X20 Y12 R14   ; CCW circle with r=14 ending at X20 Y12
// 3801  */
// 3802 #if ENABLED(ARC_SUPPORT)
// 3803 
// 3804   inline void gcode_G2_G3(const bool clockwise) {
// 3805     #if ENABLED(NO_MOTION_BEFORE_HOMING)
// 3806       if (axis_unhomed_error()) return;
// 3807     #endif
// 3808 
// 3809     if (IsRunning()) {
// 3810 
// 3811       #if ENABLED(SF_ARC_FIX)
// 3812         const bool relative_mode_backup = relative_mode;
// 3813         relative_mode = true;
// 3814       #endif
// 3815 
// 3816       gcode_get_destination();
// 3817 
// 3818       #if ENABLED(SF_ARC_FIX)
// 3819         relative_mode = relative_mode_backup;
// 3820       #endif
// 3821 
// 3822       float arc_offset[2] = { 0.0, 0.0 };
// 3823       if (parser.seenval('R')) {
// 3824         const float r = parser.value_linear_units(),
// 3825                     p1 = current_position[X_AXIS], q1 = current_position[Y_AXIS],
// 3826                     p2 = destination[X_AXIS], q2 = destination[Y_AXIS];
// 3827         if (r && (p2 != p1 || q2 != q1)) {
// 3828           const float e = clockwise ^ (r < 0) ? -1 : 1,           // clockwise -1/1, counterclockwise 1/-1
// 3829                       dx = p2 - p1, dy = q2 - q1,                 // X and Y differences
// 3830                       d = HYPOT(dx, dy),                          // Linear distance between the points
// 3831                       h = SQRT(sq(r) - sq(d * 0.5)),              // Distance to the arc pivot-point
// 3832                       mx = (p1 + p2) * 0.5, my = (q1 + q2) * 0.5, // Point between the two points
// 3833                       sx = -dy / d, sy = dx / d,                  // Slope of the perpendicular bisector
// 3834                       cx = mx + e * h * sx, cy = my + e * h * sy; // Pivot-point of the arc
// 3835           arc_offset[0] = cx - p1;
// 3836           arc_offset[1] = cy - q1;
// 3837         }
// 3838       }
// 3839       else {
// 3840         if (parser.seenval('I')) arc_offset[0] = parser.value_linear_units();
// 3841         if (parser.seenval('J')) arc_offset[1] = parser.value_linear_units();
// 3842       }
// 3843 
// 3844       if (arc_offset[0] || arc_offset[1]) {
// 3845 
// 3846         #if ENABLED(ARC_P_CIRCLES)
// 3847           // P indicates number of circles to do
// 3848           int8_t circles_to_do = parser.byteval('P');
// 3849           if (!WITHIN(circles_to_do, 0, 100)) {
// 3850             SERIAL_ERROR_START();
// 3851             SERIAL_ERRORLNPGM(MSG_ERR_ARC_ARGS);
// 3852           }
// 3853           while (circles_to_do--)
// 3854             plan_arc(current_position, arc_offset, clockwise);
// 3855         #endif
// 3856 
// 3857         // Send the arc to the planner
// 3858         plan_arc(destination, arc_offset, clockwise);
// 3859         refresh_cmd_timeout();
// 3860       }
// 3861       else {
// 3862         // Bad arguments
// 3863         SERIAL_ERROR_START();
// 3864         SERIAL_ERRORLNPGM(MSG_ERR_ARC_ARGS);
// 3865       }
// 3866     }
// 3867   }
// 3868 
// 3869 #endif // ARC_SUPPORT
// 3870 

        SECTION `.text`:CODE:NOROOT(1)
          CFI Block cfiBlock37 Using cfiCommon0
          CFI Function _Z5dwellm
        THUMB
// 3871 void dwell(millis_t time) {
_Z5dwellm:
        PUSH     {R4,LR}
          CFI R14 Frame(CFA, -4)
          CFI R4 Frame(CFA, -8)
          CFI CFA R13+8
        MOV      R4,R0
// 3872   refresh_cmd_timeout();
          CFI FunCall _Z19refresh_cmd_timeoutv
        BL       _Z19refresh_cmd_timeoutv
// 3873   time += previous_cmd_ms;
        LDR.W    R0,??DataTable118
        LDR      R0,[R0, #+0]
        ADDS     R4,R0,R4
        B.N      ??dwell_0
// 3874   while (PENDING(millis(), time)) idle();
??dwell_1:
          CFI FunCall _Z4idlev
        BL       _Z4idlev
??dwell_0:
          CFI FunCall HAL_GetTick
        BL       HAL_GetTick
        SUBS     R0,R0,R4
        BMI.N    ??dwell_1
// 3875 }
        POP      {R4,PC}          ;; return
          CFI EndBlock cfiBlock37
// 3876 
// 3877 /**
// 3878  * G4: Dwell S<seconds> or P<milliseconds>
// 3879  */
// 3880 inline void gcode_G4() {
// 3881   millis_t dwell_ms = 0;
// 3882 
// 3883   if (parser.seenval('P')) dwell_ms = parser.value_millis(); // milliseconds to wait
// 3884   if (parser.seenval('S')) dwell_ms = parser.value_millis_from_seconds(); // seconds to wait
// 3885 
// 3886   stepper.synchronize();
// 3887   #if ENABLED(NANODLP_Z_SYNC)
// 3888     SERIAL_ECHOLNPGM(MSG_Z_MOVE_COMP);
// 3889   #endif
// 3890 
// 3891   if (!lcd_hasstatus()) LCD_MESSAGEPGM(MSG_DWELL);
// 3892 
// 3893   dwell(dwell_ms);
// 3894 }
// 3895 
// 3896 #if ENABLED(BEZIER_CURVE_SUPPORT)
// 3897 
// 3898   /**
// 3899    * Parameters interpreted according to:
// 3900    * http://linuxcnc.org/docs/2.6/html/gcode/gcode.html#sec:G5-Cubic-Spline
// 3901    * However I, J omission is not supported at this point; all
// 3902    * parameters can be omitted and default to zero.
// 3903    */
// 3904 
// 3905   /**
// 3906    * G5: Cubic B-spline
// 3907    */
// 3908   inline void gcode_G5() {
// 3909     #if ENABLED(NO_MOTION_BEFORE_HOMING)
// 3910       if (axis_unhomed_error()) return;
// 3911     #endif
// 3912 
// 3913     if (IsRunning()) {
// 3914 
// 3915       #if ENABLED(CNC_WORKSPACE_PLANES)
// 3916         if (workspace_plane != PLANE_XY) {
// 3917           SERIAL_ERROR_START();
// 3918           SERIAL_ERRORLNPGM(MSG_ERR_BAD_PLANE_MODE);
// 3919           return;
// 3920         }
// 3921       #endif
// 3922 
// 3923       gcode_get_destination();
// 3924 
// 3925       const float offset[] = {
// 3926         parser.linearval('I'),
// 3927         parser.linearval('J'),
// 3928         parser.linearval('P'),
// 3929         parser.linearval('Q')
// 3930       };
// 3931 
// 3932       plan_cubic_move(offset);
// 3933     }
// 3934   }
// 3935 
// 3936 #endif // BEZIER_CURVE_SUPPORT
// 3937 
// 3938 #if ENABLED(FWRETRACT)
// 3939 
// 3940   /**
// 3941    * G10 - Retract filament according to settings of M207
// 3942    */
// 3943   inline void gcode_G10() {
// 3944     #if EXTRUDERS > 1
// 3945       const bool rs = parser.boolval('S');
// 3946       retracted_swap[active_extruder] = rs; // Use 'S' for swap, default to false
// 3947     #endif
// 3948     retract(true
// 3949       #if EXTRUDERS > 1
// 3950         , rs
// 3951       #endif
// 3952     );
// 3953   }
// 3954 
// 3955   /**
// 3956    * G11 - Recover filament according to settings of M208
// 3957    */
// 3958   inline void gcode_G11() { retract(false); }
// 3959 
// 3960 #endif // FWRETRACT
// 3961 
// 3962 #if ENABLED(NOZZLE_CLEAN_FEATURE)
// 3963   /**
// 3964    * G12: Clean the nozzle
// 3965    */
// 3966   inline void gcode_G12() {
// 3967     // Don't allow nozzle cleaning without homing first
// 3968     if (axis_unhomed_error()) return;
// 3969 
// 3970     const uint8_t pattern = parser.ushortval('P', 0),
// 3971                   strokes = parser.ushortval('S', NOZZLE_CLEAN_STROKES),
// 3972                   objects = parser.ushortval('T', NOZZLE_CLEAN_TRIANGLES);
// 3973     const float radius = parser.floatval('R', NOZZLE_CLEAN_CIRCLE_RADIUS);
// 3974 
// 3975     Nozzle::clean(pattern, strokes, radius, objects);
// 3976   }
// 3977 #endif
// 3978 
// 3979 #if ENABLED(CNC_WORKSPACE_PLANES)
// 3980 
// 3981   inline void report_workspace_plane() {
// 3982     SERIAL_ECHO_START();
// 3983     SERIAL_ECHOPGM("Workspace Plane ");
// 3984     serialprintPGM(
// 3985       workspace_plane == PLANE_YZ ? PSTR("YZ\n") :
// 3986       workspace_plane == PLANE_ZX ? PSTR("ZX\n") :
// 3987                                     PSTR("XY\n")
// 3988     );
// 3989   }
// 3990 
// 3991   inline void set_workspace_plane(const WorkspacePlane plane) {
// 3992     workspace_plane = plane;
// 3993     if (DEBUGGING(INFO)) report_workspace_plane();
// 3994   }
// 3995 
// 3996   /**
// 3997    * G17: Select Plane XY
// 3998    * G18: Select Plane ZX
// 3999    * G19: Select Plane YZ
// 4000    */
// 4001   inline void gcode_G17() { set_workspace_plane(PLANE_XY); }
// 4002   inline void gcode_G18() { set_workspace_plane(PLANE_ZX); }
// 4003   inline void gcode_G19() { set_workspace_plane(PLANE_YZ); }
// 4004 
// 4005 #endif // CNC_WORKSPACE_PLANES
// 4006 
// 4007 #if ENABLED(CNC_COORDINATE_SYSTEMS)
// 4008 
// 4009   /**
// 4010    * Select a coordinate system and update the workspace offset.
// 4011    * System index -1 is used to specify machine-native.
// 4012    */
// 4013   bool select_coordinate_system(const int8_t _new) {
// 4014     if (active_coordinate_system == _new) return false;
// 4015     float old_offset[XYZ] = { 0 }, new_offset[XYZ] = { 0 };
// 4016     if (WITHIN(active_coordinate_system, 0, MAX_COORDINATE_SYSTEMS - 1))
// 4017       COPY(old_offset, coordinate_system[active_coordinate_system]);
// 4018     if (WITHIN(_new, 0, MAX_COORDINATE_SYSTEMS - 1))
// 4019       COPY(new_offset, coordinate_system[_new]);
// 4020     active_coordinate_system = _new;
// 4021     LOOP_XYZ(i) {
// 4022       const float diff = new_offset[i] - old_offset[i];
// 4023       if (diff) {
// 4024         position_shift[i] += diff;
// 4025         update_software_endstops((AxisEnum)i);
// 4026       }
// 4027     }
// 4028     return true;
// 4029   }
// 4030 
// 4031   /**
// 4032    * In CNC G-code G53 is like a modifier
// 4033    * It precedes a movement command (or other modifiers) on the same line.
// 4034    * This is the first command to use parser.chain() to make this possible.
// 4035    */
// 4036   inline void gcode_G53() {
// 4037     // If this command has more following...
// 4038     if (parser.chain()) {
// 4039       const int8_t _system = active_coordinate_system;
// 4040       active_coordinate_system = -1;
// 4041       process_parsed_command();
// 4042       active_coordinate_system = _system;
// 4043     }
// 4044   }
// 4045 
// 4046   /**
// 4047    * G54-G59.3: Select a new workspace
// 4048    *
// 4049    * A workspace is an XYZ offset to the machine native space.
// 4050    * All workspaces default to 0,0,0 at start, or with EEPROM
// 4051    * support they may be restored from a previous session.
// 4052    *
// 4053    * G92 is used to set the current workspace's offset.
// 4054    */
// 4055   inline void gcode_G54_59(uint8_t subcode=0) {
// 4056     const int8_t _space = parser.codenum - 54 + subcode;
// 4057     if (select_coordinate_system(_space)) {
// 4058       SERIAL_PROTOCOLLNPAIR("Select workspace ", _space);
// 4059       report_current_position();
// 4060     }
// 4061   }
// 4062   FORCE_INLINE void gcode_G54() { gcode_G54_59(); }
// 4063   FORCE_INLINE void gcode_G55() { gcode_G54_59(); }
// 4064   FORCE_INLINE void gcode_G56() { gcode_G54_59(); }
// 4065   FORCE_INLINE void gcode_G57() { gcode_G54_59(); }
// 4066   FORCE_INLINE void gcode_G58() { gcode_G54_59(); }
// 4067   FORCE_INLINE void gcode_G59() { gcode_G54_59(parser.subcode); }
// 4068 
// 4069 #endif
// 4070 
// 4071 #if ENABLED(INCH_MODE_SUPPORT)
// 4072   /**
// 4073    * G20: Set input mode to inches
// 4074    */
// 4075   inline void gcode_G20() { parser.set_input_linear_units(LINEARUNIT_INCH); }
// 4076 
// 4077   /**
// 4078    * G21: Set input mode to millimeters
// 4079    */
// 4080   inline void gcode_G21() { parser.set_input_linear_units(LINEARUNIT_MM); }
// 4081 #endif
// 4082 
// 4083 #if ENABLED(NOZZLE_PARK_FEATURE)
// 4084   /**
// 4085    * G27: Park the nozzle
// 4086    */
// 4087   inline void gcode_G27() {
// 4088     // Don't allow nozzle parking without homing first
// 4089     if (axis_unhomed_error()) return;
// 4090     Nozzle::park(parser.ushortval('P'));
// 4091   }
// 4092 #endif // NOZZLE_PARK_FEATURE
// 4093 
// 4094 #if ENABLED(QUICK_HOME)
// 4095 
// 4096   static void quick_home_xy() {
// 4097 
// 4098     // Pretend the current position is 0,0
// 4099     current_position[X_AXIS] = current_position[Y_AXIS] = 0.0;
// 4100     sync_plan_position();
// 4101 
// 4102     const int x_axis_home_dir =
// 4103       #if ENABLED(DUAL_X_CARRIAGE)
// 4104         x_home_dir(active_extruder)
// 4105       #else
// 4106         home_dir(X_AXIS)
// 4107       #endif
// 4108     ;
// 4109 
// 4110     const float mlx = max_length(X_AXIS),
// 4111                 mly = max_length(Y_AXIS),
// 4112                 mlratio = mlx > mly ? mly / mlx : mlx / mly,
// 4113                 fr_mm_s = min(homing_feedrate_mm_s[X_AXIS], homing_feedrate_mm_s[Y_AXIS]) * SQRT(sq(mlratio) + 1.0);
// 4114 
// 4115     do_blocking_move_to_xy(1.5 * mlx * x_axis_home_dir, 1.5 * mly * home_dir(Y_AXIS), fr_mm_s);
// 4116     endstops.hit_on_purpose(); // clear endstop hit flags
// 4117     current_position[X_AXIS] = current_position[Y_AXIS] = 0.0;
// 4118   }
// 4119 
// 4120 #endif // QUICK_HOME
// 4121 
// 4122 #if ENABLED(DEBUG_LEVELING_FEATURE)
// 4123 
// 4124   void log_machine_info() {
// 4125     SERIAL_ECHOPGM("Machine Type: ");
// 4126     #if ENABLED(DELTA)
// 4127       SERIAL_ECHOLNPGM("Delta");
// 4128     #elif IS_SCARA
// 4129       SERIAL_ECHOLNPGM("SCARA");
// 4130     #elif IS_CORE
// 4131       SERIAL_ECHOLNPGM("Core");
// 4132     #else
// 4133       SERIAL_ECHOLNPGM("Cartesian");
// 4134     #endif
// 4135 
// 4136     SERIAL_ECHOPGM("Probe: ");
// 4137     #if ENABLED(PROBE_MANUALLY)
// 4138       SERIAL_ECHOLNPGM("PROBE_MANUALLY");
// 4139     #elif ENABLED(FIX_MOUNTED_PROBE)
// 4140       SERIAL_ECHOLNPGM("FIX_MOUNTED_PROBE");
// 4141     #elif ENABLED(BLTOUCH)
// 4142       SERIAL_ECHOLNPGM("BLTOUCH");
// 4143     #elif HAS_Z_SERVO_ENDSTOP
// 4144       SERIAL_ECHOLNPGM("SERVO PROBE");
// 4145     #elif ENABLED(Z_PROBE_SLED)
// 4146       SERIAL_ECHOLNPGM("Z_PROBE_SLED");
// 4147     #elif ENABLED(Z_PROBE_ALLEN_KEY)
// 4148       SERIAL_ECHOLNPGM("Z_PROBE_ALLEN_KEY");
// 4149     #else
// 4150       SERIAL_ECHOLNPGM("NONE");
// 4151     #endif
// 4152 
// 4153     #if HAS_BED_PROBE
// 4154       SERIAL_ECHOPAIR("Probe Offset X:", X_PROBE_OFFSET_FROM_EXTRUDER);
// 4155       SERIAL_ECHOPAIR(" Y:", Y_PROBE_OFFSET_FROM_EXTRUDER);
// 4156       SERIAL_ECHOPAIR(" Z:", zprobe_zoffset);
// 4157       #if X_PROBE_OFFSET_FROM_EXTRUDER > 0
// 4158         SERIAL_ECHOPGM(" (Right");
// 4159       #elif X_PROBE_OFFSET_FROM_EXTRUDER < 0
// 4160         SERIAL_ECHOPGM(" (Left");
// 4161       #elif Y_PROBE_OFFSET_FROM_EXTRUDER != 0
// 4162         SERIAL_ECHOPGM(" (Middle");
// 4163       #else
// 4164         SERIAL_ECHOPGM(" (Aligned With");
// 4165       #endif
// 4166       #if Y_PROBE_OFFSET_FROM_EXTRUDER > 0
// 4167         SERIAL_ECHOPGM("-Back");
// 4168       #elif Y_PROBE_OFFSET_FROM_EXTRUDER < 0
// 4169         SERIAL_ECHOPGM("-Front");
// 4170       #elif X_PROBE_OFFSET_FROM_EXTRUDER != 0
// 4171         SERIAL_ECHOPGM("-Center");
// 4172       #endif
// 4173       if (zprobe_zoffset < 0)
// 4174         SERIAL_ECHOPGM(" & Below");
// 4175       else if (zprobe_zoffset > 0)
// 4176         SERIAL_ECHOPGM(" & Above");
// 4177       else
// 4178         SERIAL_ECHOPGM(" & Same Z as");
// 4179       SERIAL_ECHOLNPGM(" Nozzle)");
// 4180     #endif
// 4181 
// 4182     #if HAS_ABL
// 4183       SERIAL_ECHOPGM("Auto Bed Leveling: ");
// 4184       #if ENABLED(AUTO_BED_LEVELING_LINEAR)
// 4185         SERIAL_ECHOPGM("LINEAR");
// 4186       #elif ENABLED(AUTO_BED_LEVELING_BILINEAR)
// 4187         SERIAL_ECHOPGM("BILINEAR");
// 4188       #elif ENABLED(AUTO_BED_LEVELING_3POINT)
// 4189         SERIAL_ECHOPGM("3POINT");
// 4190       #elif ENABLED(AUTO_BED_LEVELING_UBL)
// 4191         SERIAL_ECHOPGM("UBL");
// 4192       #endif
// 4193       if (planner.leveling_active) {
// 4194         SERIAL_ECHOLNPGM(" (enabled)");
// 4195         #if ABL_PLANAR
// 4196           const float diff[XYZ] = {
// 4197             stepper.get_axis_position_mm(X_AXIS) - current_position[X_AXIS],
// 4198             stepper.get_axis_position_mm(Y_AXIS) - current_position[Y_AXIS],
// 4199             stepper.get_axis_position_mm(Z_AXIS) - current_position[Z_AXIS]
// 4200           };
// 4201           SERIAL_ECHOPGM("ABL Adjustment X");
// 4202           if (diff[X_AXIS] > 0) SERIAL_CHAR('+');
// 4203           SERIAL_ECHO(diff[X_AXIS]);
// 4204           SERIAL_ECHOPGM(" Y");
// 4205           if (diff[Y_AXIS] > 0) SERIAL_CHAR('+');
// 4206           SERIAL_ECHO(diff[Y_AXIS]);
// 4207           SERIAL_ECHOPGM(" Z");
// 4208           if (diff[Z_AXIS] > 0) SERIAL_CHAR('+');
// 4209           SERIAL_ECHO(diff[Z_AXIS]);
// 4210         #elif ENABLED(AUTO_BED_LEVELING_UBL)
// 4211           SERIAL_ECHOPAIR("UBL Adjustment Z", stepper.get_axis_position_mm(Z_AXIS) - current_position[Z_AXIS]);
// 4212         #elif ENABLED(AUTO_BED_LEVELING_BILINEAR)
// 4213           SERIAL_ECHOPAIR("ABL Adjustment Z", bilinear_z_offset(current_position));
// 4214         #endif
// 4215       }
// 4216       else
// 4217         SERIAL_ECHOLNPGM(" (disabled)");
// 4218 
// 4219       SERIAL_EOL();
// 4220 
// 4221     #elif ENABLED(MESH_BED_LEVELING)
// 4222 
// 4223       SERIAL_ECHOPGM("Mesh Bed Leveling");
// 4224       if (planner.leveling_active) {
// 4225         float rz = current_position[Z_AXIS];
// 4226         planner.apply_leveling(current_position[X_AXIS], current_position[Y_AXIS], rz);
// 4227         SERIAL_ECHOLNPGM(" (enabled)");
// 4228         SERIAL_ECHOPAIR("MBL Adjustment Z", rz);
// 4229       }
// 4230       else
// 4231         SERIAL_ECHOPGM(" (disabled)");
// 4232 
// 4233       SERIAL_EOL();
// 4234 
// 4235     #endif // MESH_BED_LEVELING
// 4236   }
// 4237 
// 4238 #endif // DEBUG_LEVELING_FEATURE
// 4239 
// 4240 #if ENABLED(DELTA)
// 4241 
// 4242   /**
// 4243    * A delta can only safely home all axes at the same time
// 4244    * This is like quick_home_xy() but for 3 towers.
// 4245    */
// 4246   inline bool home_delta() {
// 4247     #if ENABLED(DEBUG_LEVELING_FEATURE)
// 4248       if (DEBUGGING(LEVELING)) DEBUG_POS(">>> home_delta", current_position);
// 4249     #endif
// 4250     // Init the current position of all carriages to 0,0,0
// 4251     ZERO(current_position);
// 4252     sync_plan_position();
// 4253 
// 4254     // Move all carriages together linearly until an endstop is hit.
// 4255     current_position[X_AXIS] = current_position[Y_AXIS] = current_position[Z_AXIS] = (delta_height + 10);
// 4256     feedrate_mm_s = homing_feedrate_mm_s[X_AXIS];
// 4257     buffer_line_to_current_position();
// 4258     stepper.synchronize();
// 4259 
// 4260     // If an endstop was not hit, then damage can occur if homing is continued.
// 4261     // This can occur if the delta height not set correctly.
// 4262     if (!(Endstops::endstop_hit_bits & (_BV(X_MAX) | _BV(Y_MAX) | _BV(Z_MAX)))) {
// 4263       LCD_MESSAGEPGM(MSG_ERR_HOMING_FAILED);
// 4264       SERIAL_ERROR_START();
// 4265       SERIAL_ERRORLNPGM(MSG_ERR_HOMING_FAILED);
// 4266       return false;
// 4267     }
// 4268 
// 4269     endstops.hit_on_purpose(); // clear endstop hit flags
// 4270 
// 4271     // At least one carriage has reached the top.
// 4272     // Now re-home each carriage separately.
// 4273     HOMEAXIS(A);
// 4274     HOMEAXIS(B);
// 4275     HOMEAXIS(C);
// 4276 
// 4277     // Set all carriages to their home positions
// 4278     // Do this here all at once for Delta, because
// 4279     // XYZ isn't ABC. Applying this per-tower would
// 4280     // give the impression that they are the same.
// 4281     LOOP_XYZ(i) set_axis_is_at_home((AxisEnum)i);
// 4282 
// 4283     SYNC_PLAN_POSITION_KINEMATIC();
// 4284 
// 4285     #if ENABLED(DEBUG_LEVELING_FEATURE)
// 4286       if (DEBUGGING(LEVELING)) DEBUG_POS("<<< home_delta", current_position);
